
 Start         Length     Name                   Class
 0003:00000000 0001A3FFH  _TEXT                  CODE 32-bit
 0003:0001A400 00000192H  ICODE                  ICODE 32-bit
 0004:00000000 00000004H  .tls                   tls 32-bit
 0004:00000010 00000048H  .tls$                  tls 32-bit
 0004:00000060 00000004H  .tls$ZZZ               tls 32-bit
 0005:00000000 00000004H  .CRT$XIA               DATA 32-bit
 0005:00000010 00000004H  .CRT$XIZ               DATA 32-bit
 0005:00000020 00000004H  .CRT$XCA               DATA 32-bit
 0005:00000030 00000004H  .CRT$XCZ               DATA 32-bit
 0005:00000040 00000004H  .CRT$XPA               DATA 32-bit
 0005:00000050 00000004H  .CRT$XPZ               DATA 32-bit
 0005:00000060 00000004H  .CRT$XTA               DATA 32-bit
 0005:00000070 00000004H  .CRT$XTZ               DATA 32-bit
 0005:00000074 00000000H  IMP__DATA              IMP__DATA 32-bit
 0005:00000080 00007894H  _DATA                  DATA 32-bit
 0005:00007914 00000000H  FMB                    DATA 32-bit
 0005:00007914 0000005CH  FM                     DATA 32-bit
 0005:00007970 00000000H  FME                    DATA 32-bit
 0005:00007970 00000000H  XCB                    DATA 32-bit
 0005:00007970 0000000CH  XC                     DATA 32-bit
 0005:0000797C 00000000H  XCE                    DATA 32-bit
 0005:0000797C 00000000H  XIB                    DATA 32-bit
 0005:0000797C 00000014H  XI                     DATA 32-bit
 0005:00007990 00000000H  XIE                    DATA 32-bit
 0005:00007990 00000000H  XIFCB                  DATA 32-bit
 0005:00007990 00000000H  XIFU                   DATA 32-bit
 0005:00007990 00000000H  XIFL                   DATA 32-bit
 0005:00007990 00000004H  XIFM                   DATA 32-bit
 0005:00007994 00000000H  XIFCE                  DATA 32-bit
 0005:000079A0 00000BD0H  CONST                  CONST 32-bit
 0005:00008570 00000000H  EEND                   ENDBSS 32-bit
 0005:00008570 0000181CH  _BSS                   BSS 32-bit
 0005:00009D8C 00000000H  XOB                    BSS 32-bit
 0005:00009D8C 00000004H  XO                     BSS 32-bit
 0005:00009D90 00000000H  XOE                    BSS 32-bit
 0005:00009D90 00000000H  XOFB                   BSS 32-bit
 0005:00009D90 00000104H  XOF                    BSS 32-bit
 0005:00009E94 00000000H  XOFE                   BSS 32-bit
 0005:00009EA0 0000040CH  c_common               BSS 32-bit
 0005:0000A2B0 00000000H  STACK                  STACK 32-bit

 Address       Export                  Alias

 0003:00000050 coolString              _coolString@8
 0003:00000010 useArray                _useArray@12

  Address         Publics by Name               Rva+Base

 0003:0001A580  Imp  _CloseHandle@4       (KERNEL32.dll.CloseHandle)
 0003:0001A478  Imp  _CreateSemaphoreA@16 (KERNEL32.dll.CreateSemaphoreA)
 0005:000051D8       _D10TypeInfo_a6__initZ     100241D8
 0005:00005230       _D10TypeInfo_a6__vtblZ     10024230
 0005:000051E0       _D10TypeInfo_a7__ClassZ    100241E0
 0005:000052C0       _D10TypeInfo_g6__initZ     100242C0
 0005:00005320       _D10TypeInfo_g6__vtblZ     10024320
 0005:000052D0       _D10TypeInfo_g7__ClassZ    100242D0
 0005:00005380       _D10TypeInfo_h6__initZ     10024380
 0005:000053E0       _D10TypeInfo_h6__vtblZ     100243E0
 0005:00005390       _D10TypeInfo_h7__ClassZ    10024390
 0005:00005F90       _D10TypeInfo_l6__initZ     10024F90
 0005:00005FF0       _D10TypeInfo_l6__vtblZ     10024FF0
 0005:00005FA0       _D10TypeInfo_l7__ClassZ    10024FA0
 0005:000058E0       _D10TypeInfo_m6__initZ     100248E0
 0005:00005940       _D10TypeInfo_m6__vtblZ     10024940
 0005:000058F0       _D10TypeInfo_m7__ClassZ    100248F0
 0005:00006050       _D10TypeInfo_v6__initZ     10025050
 0005:000060B0       _D10TypeInfo_v6__vtblZ     100250B0
 0005:00006060       _D10TypeInfo_v7__ClassZ    10025060
 0005:00002910       _D11TypeInfo_Aa6__initZ    10021910
 0005:00002970       _D11TypeInfo_Aa6__vtblZ    10021970
 0005:00002920       _D11TypeInfo_Aa7__ClassZ   10021920
 0005:000029D0       _D11TypeInfo_Ag6__initZ    100219D0
 0005:00002A30       _D11TypeInfo_Ag6__vtblZ    10021A30
 0005:000029E0       _D11TypeInfo_Ag7__ClassZ   100219E0
 0005:00002B50       _D11TypeInfo_Ah6__initZ    10021B50
 0005:00002BB0       _D11TypeInfo_Ah6__vtblZ    10021BB0
 0005:00002B60       _D11TypeInfo_Ah7__ClassZ   10021B60
 0005:000059A0       _D11TypeInfo_Al6__initZ    100249A0
 0005:00005A00       _D11TypeInfo_Al6__vtblZ    10024A00
 0005:000059B0       _D11TypeInfo_Al7__ClassZ   100249B0
 0005:00003660       _D11TypeInfo_Am6__initZ    10022660
 0005:000036C0       _D11TypeInfo_Am6__vtblZ    100226C0
 0005:00003670       _D11TypeInfo_Am7__ClassZ   10022670
 0005:00005A80       _D11TypeInfo_Av6__initZ    10024A80
 0005:00005AE0       _D11TypeInfo_Av6__vtblZ    10024AE0
 0005:00005A90       _D11TypeInfo_Av7__ClassZ   10024A90
 0005:000058C0       _D11TypeInfo_xa6__initZ    100248C0
 0005:00002820       _D11TypeInfo_ya6__initZ    10021820
 0005:00003720       _D12TypeInfo_AAa6__initZ   10022720
 0005:00003588       _D12TypeInfo_Axa6__initZ   10022588
 0005:000035F0       _D12TypeInfo_Axa6__vtblZ   100225F0
 0005:000035A0       _D12TypeInfo_Axa7__ClassZ  100225A0
 0005:00000A20       _D12TypeInfo_Aya6__initZ   1001FA20
 0005:00000A80       _D12TypeInfo_Aya6__vtblZ   1001FA80
 0005:00000A30       _D12TypeInfo_Aya7__ClassZ  1001FA30
 0005:000045B0       _D13TypeInfo_Enum6__initZ  100235B0
 0005:00004620       _D13TypeInfo_Enum6__vtblZ  10023620
 0005:000045D0       _D13TypeInfo_Enum7__ClassZ 100235D0
 0005:00002A90       _D14TypeInfo_Array6__initZ 10021A90
 0005:00002AF0       _D14TypeInfo_Array6__vtblZ 10021AF0
 0005:00002AA0       _D14TypeInfo_Array7__ClassZ 10021AA0
 0005:00001290       _D14TypeInfo_Class6__initZ 10020290
 0005:00001330       _D14TypeInfo_Class6__vtblZ 10020330
 0005:000012E0       _D14TypeInfo_Class7__ClassZ 100202E0
 0005:00004BB0       _D14TypeInfo_Const6__initZ 10023BB0
 0005:00004C10       _D14TypeInfo_Const6__vtblZ 10023C10
 0005:00004BC0       _D14TypeInfo_Const7__ClassZ 10023BC0
 0005:00005040       _D14TypeInfo_Inout6__initZ 10024040
 0005:000050A0       _D14TypeInfo_Inout6__vtblZ 100240A0
 0005:00005050       _D14TypeInfo_Inout7__ClassZ 10024050
 0005:00004DE0       _D14TypeInfo_Tuple6__initZ 10023DE0
 0005:00004E40       _D14TypeInfo_Tuple6__vtblZ 10023E40
 0005:00004DF0       _D14TypeInfo_Tuple7__ClassZ 10023DF0
 0005:00004500       _D15TypeInfo_Shared6__initZ 10023500
 0005:00004560       _D15TypeInfo_Shared6__vtblZ 10023560
 0005:00004510       _D15TypeInfo_Shared7__ClassZ 10023510
 0005:00004320       _D15TypeInfo_Struct6__initZ 10023320
 0005:000043B0       _D15TypeInfo_Struct6__vtblZ 100233B0
 0005:00004360       _D15TypeInfo_Struct7__ClassZ 10023360
 0005:00004428       _D15TypeInfo_Vector6__initZ 10023428
 0005:00004490       _D15TypeInfo_Vector6__vtblZ 10023490
 0005:00004440       _D15TypeInfo_Vector7__ClassZ 10023440
 0005:00004F70       _D16TypeInfo_Pointer6__initZ 10023F70
 0005:00004FD0       _D16TypeInfo_Pointer6__vtblZ 10023FD0
 0005:00004F80       _D16TypeInfo_Pointer7__ClassZ 10023F80
 0005:00004970       _D16TypeInfo_Typedef6__initZ 10023970
 0005:000049E0       _D16TypeInfo_Typedef6__vtblZ 100239E0
 0005:00004990       _D16TypeInfo_Typedef7__ClassZ 10023990
 0005:00004C80       _D17TypeInfo_Delegate6__initZ 10023C80
 0005:00004CF0       _D17TypeInfo_Delegate6__vtblZ 10023CF0
 0005:00004CA0       _D17TypeInfo_Delegate7__ClassZ 10023CA0
 0005:00004EA0       _D17TypeInfo_Function6__initZ 10023EA0
 0005:00004F10       _D17TypeInfo_Function6__vtblZ 10023F10
 0005:00004EC0       _D17TypeInfo_Function7__ClassZ 10023EC0
 0005:00004670       _D18TypeInfo_Interface6__initZ 10023670
 0005:000046D0       _D18TypeInfo_Interface6__vtblZ 100236D0
 0005:00004680       _D18TypeInfo_Interface7__ClassZ 10023680
 0005:000048B8       _D18TypeInfo_Invariant6__initZ 100238B8
 0005:00004920       _D18TypeInfo_Invariant6__vtblZ 10023920
 0005:000048D0       _D18TypeInfo_Invariant7__ClassZ 100238D0
 0005:00004A50       _D20TypeInfo_StaticArray6__initZ 10023A50
 0005:00004AB0       _D20TypeInfo_StaticArray6__vtblZ 10023AB0
 0005:00004A60       _D20TypeInfo_StaticArray7__ClassZ 10023A60
 0005:00004740       _D25TypeInfo_AssociativeArray6__initZ 10023740
 0005:000047A0       _D25TypeInfo_AssociativeArray6__vtblZ 100237A0
 0005:00004750       _D25TypeInfo_AssociativeArray7__ClassZ 10023750
 0005:00002E50       _D2gc2gc10notbinsizeyG11k  10021E50
 0005:00008B68       _D2gc2gc11recoverTimeS4core4time8Duration 10027B68
 0005:00002E80       _D2gc2gc12__ModuleInfoZ    10021E80
 0005:00008B70       _D2gc2gc12maxPauseTimeS4core4time8Duration 10027B70
 0005:00008B7C       _D2gc2gc13maxPoolMemoryk   10027B7C
 0005:00008B80       _D2gc2gc14SENTINEL_EXTRAxk 10027B80
 0005:00008B78       _D2gc2gc14numCollectionsk  10027B78
 0003:0000A0B0       _D2gc2gc15LargeObjectPool10allocPagesMFNbkZk 1000D0B0
 0003:0000A2B0       _D2gc2gc15LargeObjectPool13runFinalizersMFNbxAvZv 1000D2B0
 0003:0000A068       _D2gc2gc15LargeObjectPool13updateOffsetsMFNbkZv 1000D068
 0005:00008BF0       _D2gc2gc15LargeObjectPool6__initZ 10027BF0
 0003:0000A1F0       _D2gc2gc15LargeObjectPool7getInfoMFNbPvZS4core6memory8BlkInfo_ 1000D1F0
 0003:0000A1A4       _D2gc2gc15LargeObjectPool9freePagesMFNbkkZv 1000D1A4
 0003:00009E58       _D2gc2gc15SmallObjectPool13runFinalizersMFNbxAvZv 1000CE58
 0005:00008B90       _D2gc2gc15SmallObjectPool6__initZ 10027B90
 0003:00009D94       _D2gc2gc15SmallObjectPool7getInfoMFNbPvZS4core6memory8BlkInfo_ 1000CD94
 0003:00009FE4       _D2gc2gc15SmallObjectPool9allocPageMFNbhZPS2gc2gc4List 1000CFE4
 0003:000042D8       _D2gc2gc2GC10freeNoSyncMFNbPvZv 100072D8
 0003:000045BC       _D2gc2gc2GC10removeRootMFNbPvZv 100075BC
 0003:0000467C       _D2gc2gc2GC11removeRangeMFNbPvZv 1000767C
 0003:00004438       _D2gc2gc2GC12addrOfNoSyncMFNbPvZPv 10007438
 0003:00004118       _D2gc2gc2GC12extendNoSyncMFNbPvkkxC8TypeInfoZk 10007118
 0005:000088C0       _D2gc2gc2GC12mutexStorageG40g 100278C0
 0003:000044AC       _D2gc2gc2GC12sizeOfNoSyncMFNbPvZk 100074AC
 0003:00003B4C       _D2gc2gc2GC13reallocNoSyncMFNbPvkKkKkxC8TypeInfoZPv 10006B4C
 0005:000088B4       _D2gc2gc2GC4filePa         100278B4
 0003:00004298       _D2gc2gc2GC4freeMFNbPvZv   10007298
 0005:000088B0       _D2gc2gc2GC4linek          100278B0
 0003:000044E0       _D2gc2gc2GC5queryMFNbPvZS4core6memory8BlkInfo_ 100074E0
 0005:00001590       _D2gc2gc2GC6__initZ        10020590
 0003:000043E4       _D2gc2gc2GC6addrOfMFNbPvZPv 100073E4
 0003:00003A64       _D2gc2gc2GC6callocMFNbkkPkxC8TypeInfoZPv 10006A64
 0005:000015A0       _D2gc2gc2GC6configS2gc6config6Config 100205A0
 0005:000088B8       _D2gc2gc2GC6gcLockC2gc2gc7GCMutex 100278B8
 0003:00003984       _D2gc2gc2GC6mallocMFNbkkPkxC8TypeInfoZPv 10006984
 0003:00004458       _D2gc2gc2GC6sizeOfMFNbPvZk 10007458
 0003:00004564       _D2gc2gc2GC7addRootMFNbPvZv 10007564
 0003:0000385C       _D2gc2gc2GC7clrAttrMFNbPvkZ2goMFNbZk 1000685C
 0003:0000380C       _D2gc2gc2GC7clrAttrMFNbPvkZk 1000680C
 0003:000035BC       _D2gc2gc2GC7getAttrMFNbPvZ2goMFNbZk 100065BC
 0003:0000356C       _D2gc2gc2GC7getAttrMFNbPvZk 1000656C
 0003:0000422C       _D2gc2gc2GC7reserveMFNbkZk 1000722C
 0003:000036A0       _D2gc2gc2GC7setAttrMFNbPvkZ2goMFNbZk 100066A0
 0003:00003650       _D2gc2gc2GC7setAttrMFNbPvkZk 10006650
 0003:000045FC       _D2gc2gc2GC8addRangeMFNbPvkxC8TypeInfoZv 100075FC
 0003:0000554C       _D2gc2gc3Gcx10smallAllocMFNbhKkkZ8tryAllocMFNbZb 1000854C
 0003:000052A0       _D2gc2gc3Gcx10smallAllocMFNbhKkkZPv 100082A0
 0005:00008920       _D2gc2gc3Gcx11ToScanStack6__initZ 10027920
 0003:000067CC       _D2gc2gc3Gcx11fullcollectMFNbbZk 100097CC
 0003:00004E5C       _D2gc2gc3Gcx13runFinalizersMFNbxAvZv 10007E5C
 0003:00005074       _D2gc2gc3Gcx23updateCollectThresholdsMFNbZv 10008074
 0003:00004A30       _D2gc2gc3Gcx4DtorMFZv      10007A30
 0003:00005BC0       _D2gc2gc3Gcx4markMFNbPvPvZv 10008BC0
 0003:000062F4       _D2gc2gc3Gcx5sweepMFNbZk   100092F4
 0005:00001730       _D2gc2gc3Gcx6__initZ       10020730
 0005:000017B0       _D2gc2gc3Gcx7findBinFNbkZ8binTablexG2049g 100207B0
 0003:00005020       _D2gc2gc3Gcx7findBinFNbkZh 10008020
 0003:00004FA0       _D2gc2gc3Gcx7getInfoMFNbPvZS4core6memory8BlkInfo_ 10007FA0
 0003:00006298       _D2gc2gc3Gcx7markAllMFNbbZ14__foreachbody2MFNbKS2gc2gc4RootZi 10009298
 0003:000062C4       _D2gc2gc3Gcx7markAllMFNbbZ14__foreachbody3MFNbKS2gc2gc5RangeZi 100092C4
 0003:0000624C       _D2gc2gc3Gcx7markAllMFNbbZv 1000924C
 0003:00005898       _D2gc2gc3Gcx7newPoolMFNbkbZPS2gc2gc4Pool 10008898
 0003:00006164       _D2gc2gc3Gcx7prepareMFNbZv 10009164
 0003:00006614       _D2gc2gc3Gcx7recoverMFNbZk 10009614
 0003:0000503C       _D2gc2gc3Gcx7reserveMFNbkZk 1000803C
 0003:00005868       _D2gc2gc3Gcx8bigAllocMFNbkKkkxC8TypeInfoZ15tryAllocNewPoolMFNbZb 10008868
 0003:00005800       _D2gc2gc3Gcx8bigAllocMFNbkKkkxC8TypeInfoZ8tryAllocMFNbZb 10008800
 0003:000055BC       _D2gc2gc3Gcx8bigAllocMFNbkKkkxC8TypeInfoZPv 100085BC
 0003:00004EBC       _D2gc2gc3Gcx8findBaseMFNbPvZPv 10007EBC
 0003:00004F3C       _D2gc2gc3Gcx8findSizeMFNbPvZk 10007F3C
 0003:00006ED0       _D2gc2gc3Gcx8isMarkedMFNbPvZi 10009ED0
 0003:00005120       _D2gc2gc3Gcx8minimizeMFNbZv 10008120
 0003:00005B78       _D2gc2gc3Gcx9allocPageMFNbhZPS2gc2gc4List 10008B78
 0003:0000A930       _D2gc2gc4Pool12freePageBitsMFNbkKxG8kZv 1000D930
 0005:00008C50       _D2gc2gc4Pool6__initZ      10027C50
 0003:0000B3A8       _D2gc2gc7GCMutex4lockMFNbNeZv 1000E3A8
 0003:0000B3C8       _D2gc2gc7GCMutex6__ctorMFNbNeZC2gc2gc7GCMutex 1000E3C8
 0005:000030D0       _D2gc2gc7GCMutex6__initZ   100220D0
 0005:00003160       _D2gc2gc7GCMutex6__vtblZ   10022160
 0003:0000B3B8       _D2gc2gc7GCMutex6unlockMFNbNeZv 1000E3B8
 0005:00003100       _D2gc2gc7GCMutex7__ClassZ  10022100
 0005:00002E20       _D2gc2gc7binsizeyG11k      10021E20
 0005:00008B58       _D2gc2gc8markTimeS4core4time8Duration 10027B58
 0005:00008B50       _D2gc2gc8prepTimeS4core4time8Duration 10027B50
 0005:00002E10       _D2gc2gc9GCVERSIONxk       10021E10
 0005:00008B60       _D2gc2gc9sweepTimeS4core4time8Duration 10027B60
 0003:0000ABDC       _D2gc4bits6GCBits5allocMFNbkZv 1000DBDC
 0005:00008CB0       _D2gc4bits6GCBits6__initZ  10027CB0
 0005:00001560       _D2gc5proxy12__ModuleInfoZ 10020560
 0005:00001550       _D2gc5proxy3_gcS2gc2gc2GC  10020550
 0005:000088A8       _D2gc5proxy5proxyPS2gc5proxy5Proxy 100278A8
 0005:00008850       _D2gc5proxy5pthisS2gc5proxy5Proxy 10027850
 0005:00005F30       _D2gc6config12__ModuleInfoZ 10024F30
 0003:00011034       _D2gc6config13__T5parseHTbZ5parseFNbNiAxaKAxaKbZb 10014034
 0003:00010E10       _D2gc6config13__T5parseHTfZ5parseFNbNiAxaKAxaKfZb 10013E10
 0003:00010EE4       _D2gc6config13__T5parseHTkZ5parseFNbNiAxaKAxaKkZb 10013EE4
 0003:00010DFC       _D2gc6config18__T4skipS7isspaceZ4skipFNaNbNiNfANgaZANga 10013DFC
 0003:000111C4       _D2gc6config63__T4findS512gc6config6Config12parseOptionsMFNbNiAxaZ9__lambda2Z4findMFNaNbNiNfANgaZANga 100141C4
 0003:00012CF8       _D2gc6config67__T4findS552gc6config18__T4skipS7isspaceZ4skipFNbNiANgaZ9__lambda2Z4findMFNaNbNiNfANgaZANga 10015CF8
 0003:0000B494       _D2gc6config6Config10initializeMFNbNiZ5parseMFNbNiAyaZAya 1000E494
 0003:0000B45C       _D2gc6config6Config10initializeMFNbNiZb 1000E45C
 0003:0000B4C0       _D2gc6config6Config12parseOptionsMFNbNiAxaZb 1000E4C0
 0005:00003180       _D2gc6config6Config6__initZ 10022180
 0003:00012D64       _D2gc6config7__arrayZ      10015D64
 0003:00009BF8       _D2gc9pooltable27__T9PoolTableTS2gc2gc4PoolZ9PoolTable6insertMFNbNiPS2gc2gc4PoolZb 1000CBF8
 0003:00009CA4       _D2gc9pooltable27__T9PoolTableTS2gc2gc4PoolZ9PoolTable8findPoolMFNaNbNiPvZPS2gc2gc4Pool 1000CCA4
 0003:00009D04       _D2gc9pooltable27__T9PoolTableTS2gc2gc4PoolZ9PoolTable8minimizeMFNaNbZAPS2gc2gc4Pool 1000CD04
 0003:000012C0       _D2rt14sections_win3212SectionGroup11moduleGroupMNgFNcNdZNgS2rt5minfo11ModuleGroup 100042C0
 0005:000086E0       _D2rt14sections_win3212SectionGroup6__initZ 100276E0
 0003:000012C4       _D2rt14sections_win3212SectionGroup8gcRangesMNgFNdZANgAv 100042C4
 0005:000004C0       _D2rt14sections_win3212__ModuleInfoZ 1001F4C0
 0005:00008700       _D2rt14sections_win329_sectionsS2rt14sections_win3212SectionGroup 10027700
 0003:0001232C       _D2rt3aaA8_aaEqualUxC8TypeInfoxS2rt3aaA2AAxS2rt3aaA2AAZ9_aaKeys_xMFPxS2rt3aaA5EntryZi 1001532C
 0003:0000FC7C       _D2rt4util4hash6hashOfFNaNbNePxvkkZ9get16bitsFNaNbPxhZk 10012C7C
 0003:0000FB34       _D2rt4util4hash6hashOfFNaNbNePxvkkZk 10012B34
 0003:000047E4       _D2rt4util6string34__T21_unsignedToTempStringTkVki10Z21_unsignedToTempStringFNaNbNiNexkKG10aZAa 100077E4
 0003:0000FC88       _D2rt4util6string7dstrcmpFNaNbNexAaxAaZi 10012C88
 0003:0000A6D0       _D2rt4util9container5treap23__T5TreapTS2gc2gc4RootZ5Treap7opApplyMFNbMDFNbKS2gc2gc4RootZiZ9__lambda2MFNbKxS2gc2gc4RootZi 1000D6D0
 0003:0000A6B4       _D2rt4util9container5treap23__T5TreapTS2gc2gc4RootZ5Treap7opApplyMFNbMDFNbKS2gc2gc4RootZiZi 1000D6B4
 0003:0000A8A0       _D2rt4util9container5treap23__T5TÄÑãTS2gc“4RootZÄÜî13opApplyHelperFNbxPSÄ∑Ã4NodeMDÄÉƒKxÄçüi… 1000D8A0
 0003:0000A6E4       _D2rt4util9container5treap23__T5TÄÑãTS2gc“4RootZÄÜî6insertMFNbPSÄ∑ƒ4NodeÄçòÄæÀ 1000D6E4
 0003:0000A7D4       _D2rt4util9container5treap23__T5TÄÑãTS2gc“4RootZÄÜî6·moveFNbNiPPSÄ∑∆4NodeÄçòv 1000D7D4
 0003:0000A874       _D2rt4util9container5treap23__T5TÄÑãTS2gc“4RootZÄÜî9·moveAllFNbNiPSÄ∑»4NodeZv 1000D874
 0003:0000A44C       _D2rt4util9container5treap24__T5TreapTS2gc2gc5RangeZ5Treap7opApplyMFNbMDFNbKS2gc2gc5RangeZiZ9__lambda2MFNbKxS2gc2gc5RangeZi 1000D44C
 0003:0000A430       _D2rt4util9container5treap24__T5TreapTS2gc2gc5RangeZ5Treap7opApplyMFNbMDFNbKS2gc2gc5RangeZiZi 1000D430
 0003:0000A630       _D2rt4util9container5treap24__T5TÄÑãTS2gc“5RangeZÄÜï13opApplyHelperFNbxPSÄ∏Õ4NodeMDÄÉ≈KxÄé†i… 1000D630
 0003:0000A460       _D2rt4util9container5treap24__T5TÄÑãTS2gc“5RangeZÄÜï6insertMFNbPSÄ∏≈4NodeÄéôÄøÕ 1000D460
 0003:0000A564       _D2rt4util9container5treap24__T5TÄÑãTS2gc“5RangeZÄÜï6·moveFNbNiPPSÄ∏«4NodeÄéôv 1000D564
 0003:0000A604       _D2rt4util9container5treap24__T5TÄÑãTS2gc“5RangeZÄÜï9·moveAllFNbNiPSÄ∏…4NodeZv 1000D604
 0003:00011230       _D2rt4util9container6common7xmallocFNbkZPv 10014230
 0003:00001244       _D2rt5minfo11ModuleGroup11runTlsCtorsMFZv 10004244
 0003:00001254       _D2rt5minfo11ModuleGroup11runTlsDtorsMFZv 10004254
 0003:00001274       _D2rt5minfo11ModuleGroup4freeMFZv 10004274
 0003:00000CA0       _D2rt5minfo11ModuleGroup6__ctorMFNcAyPS6object10ModuleInfoZS2rt5minfo11ModuleGroup 10003CA0
 0005:000086B0       _D2rt5minfo11ModuleGroup6__initZ 100276B0
 0003:00001228       _D2rt5minfo11ModuleGroup8runCtorsMFZv 10004228
 0003:00001264       _D2rt5minfo11ModuleGroup8runDtorsMFZv 10004264
 0003:00000DCC       _D2rt5minfo11ModuleGroup9sortCtorsMFZ10findModuleMFxPS6object10ModuleInfoZi 10003DCC
 0003:00000E18       _D2rt5minfo11ModuleGroup9sortCtorsMFZ4sortMFKAPyS6object10ModuleInfokZv 10003E18
 0005:000086C8       _D2rt5minfo11ModuleGroup9sortCtorsMFZ8StackRec6__initZ 100276C8
 0003:00000CB4       _D2rt5minfo11ModuleGroup9sortCtorsMFZv 10003CB4
 0003:00007200       _D2rt5minfo13rt_moduleCtorUZ14__foreachbody1MFKS2rt14sections_win3212SectionGroupZi 1000A200
 0003:00002048       _D2rt5minfo13rt_moduleDtorUZ14__foreachbody1MFKS2rt14sections_win3212SectionGroupZi 10005048
 0003:00000738       _D2rt5minfo16rt_moduleTlsCtorUZ14__foreachbody1MFKS2rt14sections_win3212SectionGroupZi 10003738
 0003:00000394       _D2rt5minfo16rt_moduleTlsDtorUZ14__foreachbody1MFKS2rt14sections_win3212SectionGroupZi 10003394
 0003:0000B2FC       _D2rt5minfo67__T14runModuleFuncsS442rt5minfo11ModuleGroup8runCtorsMFZ9__lambda1Z14runModuleFuncsMFAxPyS6object10ModuleInfoZv 1000E2FC
 0003:0000B2A8       _D2rt5minfo67__T14runModuleFuncsS442rt5minfo11ModuleGroup8runCtorsMFZ9__lambda2Z14runModuleFuncsMFAxPyS6object10ModuleInfoZv 1000E2A8
 0003:000049D8       _D2rt5minfo70__T17runModuleFuncsRevS44Äâ§11ÄÜúGroup8ÄÉ´DtorsMFZ9__lambda1ZÄì√MFAxPyS6object10ÄÜûIÄÉ—Zv 100079D8
 0003:00002728       _D2rt5minfo71__T14runModuleFuncsS482rt5minfo11ModuleGroup11runTlsCtorsMFZ9__lambda1Z14runModuleFuncsMFAxPyS6object10ModuleInfoZv 10005728
 0003:0000277C       _D2rt5minfo74__T17runModuleFuncsRevS48Äâ§11ÄÜúGroup11ÄÉ¨TlsDtorsMFZ9__lambda1ZÄì«MFAxPyS6object10ÄÜûIÄÉ’Zv 1000577C
 0005:00002DE0       _D2rt5tlsgc12__ModuleInfoZ 10021DE0
 0003:0000B130       _D2rt5tlsgc14processGCMarksFNbPvMDFNbPvZiZv 1000E130
 0003:00001A58       _D2rt5tlsgc4initFZPv       10004A58
 0003:00012FF8       _D2rt5tlsgc4scanFNbPvMDFNbPvPvZvZv 10015FF8
 0003:00009AB0       _D2rt5tlsgc7destroyFPvZv   1000CAB0
 0003:00010AB0       _D2rt6config13rt_linkOptionFNbNiAyaMDFNbNiAyaZAyaZAya 10013AB0
 0003:0000B298       _D2rt6config15rt_configOptionFNbNiAyaMDFNbNiAyaZAyabZ9__lambda4MFNaNbNiNfAyaZAya 1000E298
 0003:0000B1A0       _D2rt6config15rt_configOptionFNbNiAyaMDFNbNiAyaZAyabZAya 1000E1A0
 0003:00010B80       _D2rt6config16rt_cmdlineOptionFNbNiAyaMDFNbNiAyaZAyaZAya 10013B80
 0003:00010C80       _D2rt6config16rt_envvarsOptionFNbNiAyaMDFNbNiAyaZAyaZAya 10013C80
 0005:000087D0       _D2rt6dmain210_initCountOk 100277D0
 0005:000008D0       _D2rt6dmain212__ModuleInfoZ 1001F8D0
 0003:00001D1C       _D2rt6dmain214printThrowableFC6object9ThrowableZ4sinkMFNbxAaZv 10004D1C
 0003:00001C80       _D2rt6dmain214printThrowableFC6object9ThrowableZ5WSink4sinkMFNbxAaZv 10004C80
 0005:000087B0       _D2rt6dmain214printThrowableFC6object9ThrowableZ5WSink6__initZ 100277B0
 0003:00001B84       _D2rt6dmain214printThrowableFC6object9ThrowableZv 10004B84
 0003:0000470C       _D2rt6dmain215formatThrowableFC6object9ThrowableDFNbxAaZvZv 1000770C
 0005:000087D8       _D2rt6dmain26_cArgsS2rt6dmain25CArgs 100277D8
 0005:000087C0       _D2rt6dmain27_d_argsAAya   100277C0
 0003:000072C8       _D2rt6memory16initStaticDataGCFZ14__foreachbody1MFKS2rt14sections_win3212SectionGroupZi 1000A2C8
 0003:000072A4       _D2rt6memory16initStaticDataGCFZv 1000A2A4
 0005:00001440       _D2rt8lifetime12__ModuleInfoZ 10020440
 0003:0000F914       _D2rt8lifetime12__arrayAllocFNaNbkxC8TypeInfoxC8TypeInfoZS4core6memory8BlkInfo_ 10012914
 0003:0000F9DC       _D2rt8lifetime12__arrayAllocFkKS4core6memory8BlkInfo_xC8TypeInfoxC8TypeInfoZS4core6memory8BlkInfo_ 100129DC
 0003:0000874C       _D2rt8lifetime12__doPostblitFPvkxC8TypeInfoZv 1000B74C
 0003:0000F49C       _D2rt8lifetime12__getBlkInfoFNbPvZPS4core6memory8BlkInfo_ 1001249C
 0004:00000054       _D2rt8lifetime12__nextBlkIdxi 1001E054
 0003:00003504       _D2rt8lifetime14_staticDtor352FZv 10006504
 0005:00008840       _D2rt8lifetime14collectHandlerPFC6ObjectZb 10027840
 0003:00010530       _D2rt8lifetime15finalize_array2FNbPvkZv 10013530
 0003:0001072C       _D2rt8lifetime15finalize_structFNbPvkZv 1001372C
 0004:00000050       _D2rt8lifetime18__blkcache_storagePS4core6memory8BlkInfo_ 1001E050
 0003:000124E4       _D2rt8lifetime18structTypeInfoSizeFNaNbNixC8TypeInfoZk 100154E4
 0005:00002D68       _D2rt8lifetime20ArrayAllocLengthLock6__initZ 10021D68
 0005:00002DC0       _D2rt8lifetime20ArrayAllocLengthLock6__vtblZ 10021DC0
 0005:00002D70       _D2rt8lifetime20ArrayAllocLengthLock7__ClassZ 10021D70
 0003:0000F578       _D2rt8lifetime21__setArrayAllocLengthFNaNbKS4core6memory8BlkInfo_kbxC8TypeInfokZb 10012578
 0005:00008844       _D2rt8lifetime23callStructDtorsDuringGCyb 10027844
 0003:00012D78       _D2rt8lifetime26hasArrayFinalizerInSegmentFNbPvkxAvZi 10015D78
 0003:00012DB4       _D2rt8lifetime27hasStructFinalizerInSegmentFNbPvkxAvZi 10015DB4
 0003:000087E0       _D2rt8lifetime9unqualifyFNaNbNiNgC8TypeInfoZNgC8TypeInfo 1000B7E0
 0005:00001670       _D2rt8monitor_12__ModuleInfoZ 10020670
 0005:00008900       _D2rt8monitor_16_monitor_critsecS4core3sys7windows7windows21_RTL_CRITICAL_SECTION 10027900
 0005:000088F0       _D2rt8monitor_6initedi     100278F0
 0003:000093B0       _D2rt8typeinfo5ti_Ag11TypeInfo_Aa4nextMNgFNaNbNdNiZNgC8TypeInfo 1000C3B0
 0003:00009368       _D2rt8typeinfo5ti_Ag11TypeInfo_Aa7getHashMxFNbNexPvZk 1000C368
 0003:00009358       _D2rt8typeinfo5ti_Ag11TypeInfo_Aa8toStringMxFNaNbNfZAya 1000C358
 0003:000094F8       _D2rt8typeinfo5ti_Ag11TypeInfo_Ag4nextMNgFNaNbNdNiZNgC8TypeInfo 1000C4F8
 0003:00009404       _D2rt8typeinfo5ti_Ag11TypeInfo_Ag6equalsMxFxPvxPvZb 1000C404
 0003:00009460       _D2rt8typeinfo5ti_Ag11TypeInfo_Ag7compareMxFxPvxPvZi 1000C460
 0003:000093D8       _D2rt8typeinfo5ti_Ag11TypeInfo_Ag7getHashMxFNbNexPvZk 1000C3D8
 0003:000093B8       _D2rt8typeinfo5ti_Ag11TypeInfo_Ag8opEqualsMFC6ObjectZb 1000C3B8
 0003:000093C8       _D2rt8typeinfo5ti_Ag11TypeInfo_Ag8toStringMxFNaNbNfZAya 1000C3C8
 0003:0000976C       _D2rt8typeinfo5ti_Ag11TypeInfo_Ah4nextMNgFNaNbNdNiZNgC8TypeInfo 1000C76C
 0003:00009750       _D2rt8typeinfo5ti_Ag11TypeInfo_Ah7compareMxFxPvxPvZi 1000C750
 0003:00009740       _D2rt8typeinfo5ti_Ag11TypeInfo_Ah8toStringMxFNaNbNfZAya 1000C740
 0003:000124B0       _D2rt8typeinfo5ti_Ag11TypeInfo_Av4nextMNgFNaNbNdNiZNgC8TypeInfo 100154B0
 0003:000124A0       _D2rt8typeinfo5ti_Ag11TypeInfo_Av8toStringMxFNaNbNfZAya 100154A0
 0003:0000BCCC       _D2rt8typeinfo5ti_Ag12TypeInfo_Axa4nextMNgFNaNbNdNiZNgC8TypeInfo 1000ECCC
 0003:0000BCBC       _D2rt8typeinfo5ti_Ag12TypeInfo_Axa8toStringMxFNaNbNfZAya 1000ECBC
 0003:000025AC       _D2rt8typeinfo5ti_Ag12TypeInfo_Aya4nextMNgFNaNbNdNiZNgC8TypeInfo 100055AC
 0003:0000259C       _D2rt8typeinfo5ti_Ag12TypeInfo_Aya8toStringMxFNaNbNfZAya 1000559C
 0003:0000FD40       _D2rt8typeinfo7ti_byte10TypeInfo_g4swapMxFNaNbNePvPvZv 10012D40
 0003:0000FD38       _D2rt8typeinfo7ti_byte10TypeInfo_g5tsizeMxFNaNbNdNiNeZk 10012D38
 0003:0000FD04       _D2rt8typeinfo7ti_byte10TypeInfo_g6equalsMxFNaNbNexPvxPvZb 10012D04
 0003:0000FD20       _D2rt8typeinfo7ti_byte10TypeInfo_g7compareMxFNaNbNexPvxPvZi 10012D20
 0003:0000FCF8       _D2rt8typeinfo7ti_byte10TypeInfo_g7getHashMxFNaNbNexPvZk 10012CF8
 0003:0000FCE8       _D2rt8typeinfo7ti_byte10TypeInfo_g8toStringMxFNaNbNfZAya 10012CE8
 0005:000051D0       _D2rt8typeinfo7ti_char10TypeInfo_a4initMxFNaNbNeZ1cya 100241D0
 0003:0000FAF8       _D2rt8typeinfo7ti_char10TypeInfo_a4initMxFNaNbNiNeZAxv 10012AF8
 0003:0000FAE0       _D2rt8typeinfo7ti_char10TypeInfo_a4swapMxFNaNbNePvPvZv 10012AE0
 0003:0000FAD8       _D2rt8typeinfo7ti_char10TypeInfo_a5tsizeMxFNaNbNdNiNeZk 10012AD8
 0003:0000FAA4       _D2rt8typeinfo7ti_char10TypeInfo_a6equalsMxFNaNbNexPvxPvZb 10012AA4
 0003:0000FAC0       _D2rt8typeinfo7ti_char10TypeInfo_a7compareMxFNaNbNexPvxPvZi 10012AC0
 0003:0000FA98       _D2rt8typeinfo7ti_char10TypeInfo_a7getHashMxFNaNbNexPvZk 10012A98
 0003:0000FA88       _D2rt8typeinfo7ti_char10TypeInfo_a8toStringMxFNaNbNfZAya 10012A88
 0003:00012E80       _D2rt8typeinfo7ti_long10TypeInfo_l4swapMxFNaNbNePvPvZv 10015E80
 0003:00012E78       _D2rt8typeinfo7ti_long10TypeInfo_l5tsizeMxFNaNbNdNiNeZk 10015E78
 0003:00012E08       _D2rt8typeinfo7ti_long10TypeInfo_l6equalsMxFNaNbNexPvxPvZb 10015E08
 0003:00012EBC       _D2rt8typeinfo7ti_long10TypeInfo_l6talignMxFNaNbNdNiNeZk 10015EBC
 0003:00012E2C       _D2rt8typeinfo7ti_long10TypeInfo_l7compareMxFNaNbNexPvxPvZi 10015E2C
 0003:00012DF4       _D2rt8typeinfo7ti_long10TypeInfo_l7getHashMxFNaNbNexPvZk 10015DF4
 0003:00012DE4       _D2rt8typeinfo7ti_long10TypeInfo_l8toStringMxFNaNbNfZAya 10015DE4
 0003:00012FAC       _D2rt8typeinfo7ti_void10TypeInfo_v4swapMxFNaNbNePvPvZv 10015FAC
 0003:00012FC4       _D2rt8typeinfo7ti_void10TypeInfo_v5flagsMxFNaNbNdNiNeZk 10015FC4
 0003:00012FA4       _D2rt8typeinfo7ti_void10TypeInfo_v5tsizeMxFNaNbNdNiNeZk 10015FA4
 0003:00012F70       _D2rt8typeinfo7ti_void10TypeInfo_v6equalsMxFNaNbNexPvxPvZb 10015F70
 0003:00012F8C       _D2rt8typeinfo7ti_void10TypeInfo_v7compareMxFNaNbNexPvxPvZi 10015F8C
 0003:00012F6C       _D2rt8typeinfo7ti_void10TypeInfo_v7getHashMxFNaNbNexPvZk 10015F6C
 0003:00012F5C       _D2rt8typeinfo7ti_void10TypeInfo_v8toStringMxFNaNbNfZAya 10015F5C
 0003:000114FC       _D2rt8typeinfo8ti_Along11TypeInfo_Al4nextMNgFNaNbNdNiZNgC8TypeInfo 100144FC
 0003:000113FC       _D2rt8typeinfo8ti_Along11TypeInfo_Al6equalsMxFxPvxPvZb 100143FC
 0003:00011458       _D2rt8typeinfo8ti_Along11TypeInfo_Al7compareMxFxPvxPvZi 10014458
 0003:000113C8       _D2rt8typeinfo8ti_Along11TypeInfo_Al7getHashMxFNbNexPvZk 100143C8
 0003:000113A8       _D2rt8typeinfo8ti_Along11TypeInfo_Al8opEqualsMFC6ObjectZb 100143A8
 0003:000113B8       _D2rt8typeinfo8ti_Along11TypeInfo_Al8toStringMxFNaNbNfZAya 100143B8
 0003:0000BE1C       _D2rt8typeinfo8ti_Along11TypeInfo_Am4nextMNgFNaNbNdNiZNgC8TypeInfo 1000EE1C
 0003:0000BD7C       _D2rt8typeinfo8ti_Along11TypeInfo_Am7compareMxFxPvxPvZi 1000ED7C
 0003:0000BD6C       _D2rt8typeinfo8ti_Along11TypeInfo_Am8toStringMxFNaNbNfZAya 1000ED6C
 0003:0000FF48       _D2rt8typeinfo8ti_ubyte10TypeInfo_h4swapMxFNaNbNePvPvZv 10012F48
 0003:0000FF40       _D2rt8typeinfo8ti_ubyte10TypeInfo_h5tsizeMxFNaNbNdNiNeZk 10012F40
 0003:0000FF0C       _D2rt8typeinfo8ti_ubyte10TypeInfo_h6equalsMxFNaNbNexPvxPvZb 10012F0C
 0003:0000FF28       _D2rt8typeinfo8ti_ubyte10TypeInfo_h7compareMxFNaNbNexPvxPvZi 10012F28
 0003:0000FF00       _D2rt8typeinfo8ti_ubyte10TypeInfo_h7getHashMxFNaNbNexPvZk 10012F00
 0003:0000FEF0       _D2rt8typeinfo8ti_ubyte10TypeInfo_h8toStringMxFNaNbNfZAya 10012EF0
 0003:00011364       _D2rt8typeinfo8ti_ulong10TypeInfo_m4swapMxFNaNbNePvPvZv 10014364
 0003:0001135C       _D2rt8typeinfo8ti_ulong10TypeInfo_m5tsizeMxFNaNbNdNiNeZk 1001435C
 0003:000112FC       _D2rt8typeinfo8ti_ulong10TypeInfo_m6equalsMxFNaNbNexPvxPvZb 100142FC
 0003:000113A0       _D2rt8typeinfo8ti_ulong10TypeInfo_m6talignMxFNaNbNdNiNeZk 100143A0
 0003:00011320       _D2rt8typeinfo8ti_ulong10TypeInfo_m7compareMxFNaNbNexPvxPvZi 10014320
 0003:000112E8       _D2rt8typeinfo8ti_ulong10TypeInfo_m7getHashMxFNaNbNexPvZk 100142E8
 0003:000112D8       _D2rt8typeinfo8ti_ulong10TypeInfo_m8toStringMxFNaNbNfZAya 100142D8
 0005:00001FD0       _D2rt9critical_12__ModuleInfoZ 10020FD0
 0005:00008940       _D2rt9critical_16critical_sectionS2rt9critical_18D_CRITICAL_SECTION 10027940
 0005:0000895C       _D2rt9critical_6initedi    1002795C
 0005:00008930       _D2rt9critical_8dcs_listPS2rt9critical_18D_CRITICAL_SECTION 10027930
 0005:00000E90       _D2rt9deh_win3212__ModuleInfoZ 1001FE90
 0004:00000030       _D2rt9deh_win3221inflightExceptionListPS2rt9deh_win3216EXCEPTION_RECORD 1001E030
 0003:00002D34       _D2rt9deh_win3224skipCollateralExceptionsFPS2rt9deh_win3216EXCEPTION_RECORDZPS2rt9deh_win3216EXCEPTION_RECORD 10005D34
 0003:00002914       _D2rt9deh_win3230_d_translate_se_to_d_exceptionFPS2rt9deh_win3216EXCEPTION_RECORDPS2rt9deh_win327CONTEXTZC6object9Throwable 10005914
 0003:00008728       _D2rt9deh_win329throwImplFC6ObjectZv 1000B728
 0005:00002D50       _D30TypeInfo_AC4core6thread6Thread6__initZ 10021D50
 0003:00007BDC       _D4core3sys7windows10stacktrace10StackTrace11traceNoSyncFkPS4core3sys7windows7windows7CONTEXTZAm 1000ABDC
 0005:000021A0       _D4core3sys7windows10stacktrace10StackTrace13resolveNoSyncFAxmZ9BufSymbol6__initZ 100211A0
 0003:00007EA4       _D4core3sys7windows10stacktrace10StackTrace13resolveNoSyncFAxmZAAa 1000AEA4
 0003:00007A90       _D4core3sys7windows10stacktrace10StackTrace5traceFkPS4core3sys7windows7windows7CONTEXTZAm 1000AA90
 0005:000025F0       _D4core3sys7windows10stacktrace10StackTrace6__initZ 100215F0
 0005:00002680       _D4core3sys7windows10stacktrace10StackTrace6__vtblZ 10021680
 0005:00002610       _D4core3sys7windows10stacktrace10StackTrace7__ClassZ 10021610
 0003:000079A8       _D4core3sys7windows10stacktrace10StackTrace7opApplyMxFMDFKkKxAaZiZi 1000A9A8
 0003:00007994       _D4core3sys7windows10stacktrace10StackTrace7opApplyMxFMDFKxAaZiZ16__T9__lambda2TkZ9__lambda2MFKkKxAaZi 1000A994
 0003:00007974       _D4core3sys7windows10stacktrace10StackTrace7opApplyMxFMDFKxAaZiZi 1000A974
 0003:00007B38       _D4core3sys7windows10stacktrace10StackTrace7resolveFAxmZAAa 1000AB38
 0003:00007A48       _D4core3sys7windows10stacktrace10StackTrace8toStringMxFZ14__foreachbody1MFNaNbNfKxAaZi 1000AA48
 0003:00007A0C       _D4core3sys7windows10stacktrace10StackTrace8toStringMxFZAya 1000AA0C
 0005:000087E4       _D4core3sys7windows10stacktrace11initializedyb 100277E4
 0005:00000990       _D4core3sys7windows10stacktrace12__ModuleInfoZ 1001F990
 0005:00002740       _D4core3sys7windows10stacktrace18generateSearchPathFZ15defaultPathListG3Aya 10021740
 0003:00008364       _D4core3sys7windows10stacktrace18generateSearchPathFZAya 1000B364
 0003:00002468       _D4core3sys7windows10stacktrace20_sharedStaticCtor233FZv 10005468
 0005:000087E0       _D4core3sys7windows10stacktrace24RtlCaptureStackBackTracePWkkPPvPkZt 100277E0
 0003:00007938       _D4core3sys7windows10stacktr·e10SÄÑåTÄÑå6__ctorMFkPSÄëµˇ7CONTEXTZCÄ©ÿ 1000A938
 0003:00002414       _D4core3sys7windows3dll10dll_fixTLSFNbPvPvPvPvPiZ14__funcliteral6FNbkPvZb 10005414
 0003:000022F0       _D4core3sys7windows3dll10dll_fixTLSFNbPvPvPvPvPiZb 100052F0
 0004:00000010       _D4core3sys7windows3dll10tlsCtorRunb 1001E010
 0005:00000260       _D4core3sys7windows3dll12__ModuleInfoZ 1001F260
 0003:00000330       _D4core3sys7windows3dll14_staticCtor230FZv 10003330
 0003:00000348       _D4core3sys7windows3dll14_staticDtor231FZv 10003348
 0003:00000218       _D4core3sys7windows3dll17dll_thread_attachFbbZb 10003218
 0003:0000018C       _D4core3sys7windows3dll17dll_thread_detachFbbZb 1000318C
 0003:00000C48       _D4core3sys7windows3dll18dll_process_attachFPvbPvPvPvPiZ14__funcliteral7FkPvZb 10003C48
 0003:00000BF8       _D4core3sys7windows3dll18dll_process_attachFPvbPvPvPvPiZb 10003BF8
 0003:00000300       _D4core3sys7windows3dll18dll_process_attachFPvbZb 10003300
 0003:000002C8       _D4core3sys7windows3dll18dll_process_detachFPvbZ14__funcliteral3FkPvZb 100032C8
 0003:000002A4       _D4core3sys7windows3dll18dll_process_detachFPvbZv 100032A4
 0005:000089B0       _D4core3sys7windows3dll7dll_aux10LDR_MODULE6__initZ 100279B0
 0005:000089A0       _D4core3sys7windows3dll7dll_aux10LIST_ENTRY6__initZ 100279A0
 0003:00007804       _D4core3sys7windows3dll7dll_aux10addTlsDataFNbPPvPvPviZb 1000A804
 0005:00008A00       _D4core3sys7windows3dll7dll_aux12PEB_LDR_DATA6__initZ 10027A00
 0003:000078F0       _D4core3sys7windows3dll7dll_aux13findLdrModuleFNbPvPPvZPS4core3sys7windows3dll7dll_aux10LDR_MODULE 1000A8F0
 0005:00008990       _D4core3sys7windows3dll7dll_aux13pNtdllBaseTagPi 10027990
 0005:00008998       _D4core3sys7windows3dll7dll_aux14UNICODE_STRING6__initZ 10027998
 0003:00007648       _D4core3sys7windows3dll7dll_aux15addTlsListEntryFNbPPvPvPvPvPiZPS4core3sys7windows3dll7dll_aux16LdrpTlsListEntry 1000A648
 0005:00002108       _D4core3sys7windows3dll7dll_aux15mov_LdrpTlsListAh 10021108
 0005:00008970       _D4core3sys7windows3dll7dll_aux16LdrpTlsListEntry6__initZ 10027970
 0003:0000757C       _D4core3sys7windows3dll7dll_aux16findCodeSequenceFNbPviKAhZPv 1000A57C
 0005:000020E8       _D4core3sys7windows3dll7dll_aux16mov_NtdllBaseTagAh 100210E8
 0003:000075F8       _D4core3sys7windows3dll7dll_aux17findCodeReferenceFNbPviKAhbZPv 1000A5F8
 0005:00002068       _D4core3sys7windows3dll7dll_aux18jmp_LdrpInitializeAh 10021068
 0005:00002078       _D4core3sys7windows3dll7dll_aux19jmp__LdrpInitializeAh 10021078
 0005:000020C8       _D4core3sys7windows3dll7dll_aux19jne_LdrpAllocateTlsAh 100210C8
 0005:000020A8       _D4core3sys7windows3dll7dll_aux20call_LdrpAllocateTlsAh 100210A8
 0005:000020F8       _D4core3sys7windows3dll7dll_aux22mov_NtdllBaseTag_srv03Ah 100210F8
 0005:00002088       _D4core3sys7windows3dll7dll_aux24jmp__LdrpInitialize_xp64Ah 10021088
 0005:00002098       _D4core3sys7windows3dll7dll_aux25call_LdrpInitializeThreadAh 10021098
 0005:000020B8       _D4core3sys7windows3dll7dll_aux26call_LdrpAllocateTls_svr03Ah 100210B8
 0005:000020D8       _D4core3sys7windows3dll7dll_aux26mov_LdrpNumberOfTlsEntriesAh 100210D8
 0005:00008960       _D4core3sys7windows3dll7dll_aux6__initZ 10027960
 0005:000027A0       _D4core3sys7windows7dbghelp12__ModuleInfoZ 100217A0
 0003:00008708       _D4core3sys7windows7dbghelp7DbgHelp20_sharedStaticDtor229FZv 1000B708
 0003:00008580       _D4core3sys7windows7dbghelp7DbgHelp3getFZPS4core3sys7windows7dbghelp7DbgHelp 1000B580
 0005:00008A40       _D4core3sys7windows7dbghelp7DbgHelp6__initZ 10027A40
 0005:00008AC0       _D4core3sys7windows7dbghelp7DbgHelp7sm_hndlPv 10027AC0
 0005:00008A80       _D4core3sys7windows7dbghelp7DbgHelp7sm_instS4core3sys7windows7dbghelp7DbgHelp 10027A80
 0005:00008588       _D4core3sys7windows9threadaux10thread_aux14UNICODE_STRING6__initZ 10027588
 0003:00000858       _D4core3sys7windows9threadaux10thread_aux18enumProcessThreadsFkPFkPvZbPvZb 10003858
 0003:00000A28       _D4core3sys7windows9threadaux10thread_aux18impersonate_threadFkMDFZvZv 10003A28
 0003:00000A20       _D4core3sys7windows9threadaux10thread_aux18impersonate_threadFkPUZvZ9__lambda3MFZv 10003A20
 0003:000009FC       _D4core3sys7windows9threadaux10thread_aux18impersonate_threadFkPUZvZv 100039FC
 0005:00008690       _D4core3sys7windows9threadaux10thread_aux24THREAD_BASIC_INFORMATION6__initZ 10027690
 0005:00008650       _D4core3sys7windows9threadaux10thread_aux26_SYSTEM_THREAD_INFORMATION6__initZ 10027650
 0005:00008590       _D4core3sys7windows9threadaux10thread_aux27_SYSTEM_PROCESS_INFORMATION6__initZ 10027590
 0005:00008580       _D4core3sys7windows9threadaux10thread_aux6__initZ 10027580
 0003:00000850       _D4core3sys7windows9threadaux10thread_aux6getTEBFNbZPPv 10003850
 0003:000007F0       _D4core3sys7windows9threadaux10thread_aux6getTEBFNbkZPPv 100037F0
 0005:000003A0       _D4core3sys7windows9threadaux12__ModuleInfoZ 1001F3A0
 0003:000003AC       _D4core3sys7windows9threadaux17GetTlsDataAddressFNbPvZPv 100033AC
 0003:0000218C       _D4core3sys7windows9threadaux17GetTlsDataAddressFNbkZPv 1000518C
 0003:0000210C       _D4core3sys7windows9threadaux20thread_moduleTlsCtorFkZv 1000510C
 0003:00000750       _D4core3sys7windows9threadaux20thread_moduleTlsDtorFkZv 10003750
 0005:000015E0       _D4core4stdc5stdio12__ModuleInfoZ 100205E0
 0005:00008CE0       _D4core4sync5mutex5Mutex12MonitorProxy6__initZ 10027CE0
 0003:00010DC8       _D4core4sync5mutex5Mutex4lockMFNeZv 10013DC8
 0003:00010D7C       _D4core4sync5mutex5Mutex6__ctorMFNbNeZC4core4sync5mutex5Mutex 10013D7C
 0003:00010DB0       _D4core4sync5mutex5Mutex6__dtorMFZv 10013DB0
 0005:00005780       _D4core4sync5mutex5Mutex6__initZ 10024780
 0005:00005820       _D4core4sync5mutex5Mutex6__vtblZ 10024820
 0003:00010DD8       _D4core4sync5mutex5Mutex6unlockMFNeZv 10013DD8
 0005:000057B0       _D4core4sync5mutex5Mutex7__ClassZ 100247B0
 0003:00010DE8       _D4core4sync5mutex5Mutex7tryLockMFZb 10013DE8
 0005:00008818       _D4core4time12TickDuration11ticksPerSecyl 10027818
 0003:0000300C       _D4core4time12TickDuration20_sharedStaticCtor173FNeZv 1000600C
 0003:00009ABC       _D4core4time12TickDuration6__ctorMFNaNbNcNiNflZS4core4time12TickDuration 1000CABC
 0005:00008810       _D4core4time12TickDuration6__initZ 10027810
 0005:00008820       _D4core4time12TickDuration9appOriginyS4core4time12TickDuration 10027820
 0005:00001020       _D4core4time12__ModuleInfoZ 10020020
 0003:00009AD0       _D4core4time13TimeException6__ctorMFNaNbNfAyaAyakC6object9ThrowableZC4core4time13TimeException 1000CAD0
 0005:00002CB0       _D4core4time13TimeException6__initZ 10021CB0
 0005:00002D30       _D4core4time13TimeException6__vtblZ 10021D30
 0005:00002CE0       _D4core4time13TimeException7__ClassZ 10021CE0
 0003:000107B8       _D4core4time7FracSec28__T4fromVAyaa6_686e73656373Z4fromFNaNflZS4core4time7FracSec 100137B8
 0003:00012CAC       _D4core4time7FracSec6__ctorMFNaNbNcNiNfiZS4core4time7FracSec 10015CAC
 0005:00008CF0       _D4core4time7FracSec6__initZ 10027CF0
 0003:0000AC14       _D4core4time8Duration5opCmpMxFNaNbNiNfS4core4time8DurationZi 1000DC14
 0003:0000ACFC       _D4core4time8Duration6__ctorMFNaNbNcNiNflZS4core4time8Duration 1000DCFC
 0005:00008CC0       _D4core4time8Duration6__initZ 10027CC0
 0003:0000AC58       _D4core4time8Duration7fracSecMxFNaNbNdNfZS4core4time7FracSec 1000DC58
 0005:00008808       _D4core4time8MonoTime15_ticksPerSecondyl 10027808
 0003:00002FD0       _D4core4time8MonoTime20_sharedStaticCtor166FNeZv 10005FD0
 0005:00008800       _D4core4time8MonoTime6__initZ 10027800
 0005:00002C44       _D4core5cpuid10maxThreadsk 10021C44
 0005:00008B34       _D4core5cpuid11amdfeaturesk 10027B34
 0005:00008B30       _D4core5cpuid11extfeaturesk 10027B30
 0005:00008B19       _D4core5cpuid11probablyAMDb 10027B19
 0005:00002C50       _D4core5cpuid12__ModuleInfoZ 10021C50
 0003:0001281C       _D4core5cpuid12getCpuInfo0BFNbNiNeZv 1001581C
 0005:00008B2C       _D4core5cpuid12miscfeaturesk 10027B2C
 0005:00008B18       _D4core5cpuid13probablyIntelb 10027B18
 0005:00008B20       _D4core5cpuid13processorNameAya 10027B20
 0005:00002C00       _D4core5cpuid14numCacheLevelsk 10021C00
 0005:00008B38       _D4core5cpuid15amdmiscfeaturesk 10027B38
 0005:00005B70       _D4core5cpuid15getAMDcacheinfoFNbNiNeZ8assocmapyAh 10024B70
 0003:00012714       _D4core5cpuid15getAMDcacheinfoFNbNiNeZv 10015714
 0005:00005BA0       _D4core5cpuid18getcacheinfoCPUID2FNbNiNeZ14decipherCpuid2MFNbNihZ3idsyG63h 10024BA0
 0005:00005CE0       _D4core5cpuid18getcacheinfoCPUID2FNbNiNeZ14decipherCpuid2MFNbNihZ4waysyG63h 10024CE0
 0005:00005BE0       _D4core5cpuid18getcacheinfoCPUID2FNbNiNeZ14decipherCpuid2MFNbNihZ5sizesyG63k 10024BE0
 0003:000129A4       _D4core5cpuid18getcacheinfoCPUID2FNbNiNeZ14decipherCpuid2MFNbNihZv 100159A4
 0003:0001289C       _D4core5cpuid18getcacheinfoCPUID2FNbNiNeZv 1001589C
 0003:00012588       _D4core5cpuid18getcacheinfoCPUID4FNbNiNeZv 10015588
 0005:00008B4C       _D4core5cpuid18max_extended_cpuidk 10027B4C
 0003:00009924       _D4core5cpuid19_sharedStaticCtor65FNbNiNeZv 1000C924
 0005:00002C10       _D4core5cpuid19processorNameBufferG48a 10021C10
 0005:00008B10       _D4core5cpuid5modelk       10027B10
 0005:00008B14       _D4core5cpuid6familyk      10027B14
 0003:0000FFA8       _D4core5cpuid8cpuidX86FNbNiNeZv 10012FA8
 0005:00008B28       _D4core5cpuid8featuresk    10027B28
 0003:0000FF7C       _D4core5cpuid8hasCPUIDFNbNiNeZb 10012F7C
 0005:00002C40       _D4core5cpuid8maxCoresk    10021C40
 0005:00008B0C       _D4core5cpuid8steppingk    10027B0C
 0005:00002C04       _D4core5cpuid8vendorIDG12a 10021C04
 0005:00008AD0       _D4core5cpuid9datacacheG5S4core5cpuid9CacheInfo 10027AD0
 0005:00008B48       _D4core5cpuid9max_cpuidk   10027B48
 0005:00008B40       _D4core5cpuid9xfeaturesm   10027B40
 0005:00000ED0       _D4core6atomic12__ModuleInfoZ 1001FED0
 0003:000046E0       _D4core6atomic19__T7casImplTkTxkTkZ7casImplFNaNbNiPOkxkkZb 100076E0
 0003:00007224       _D4core6atomic28__T8atomicOpVAyaa2_2b3dTkTiZ8atomicOpFNaNbNiKOkiZk 1000A224
 0003:00001B54       _D4core6atomic28__T8atomicOpVAyaa2_2d3dTkTiZ8atomicOpFNaNbNiKOkiZk 10004B54
 0003:00013090       _D4core6atomic28__T8atomicOpVAyaa2_2d3dTkTkZ8atomicOpFNaNbNiKOkkZk 10016090
 0003:000046FC       _D4core6atomic47__T10atomicLoadVE4core6atomic11MemoryOrderi0TkZ10atomicLoadFNaNbNiKOxkZk 100076FC
 0003:00009BE4       _D4core6atomic50__T11atomicStoreVE4core6atomic11MemoryOrderi0TkTkZ11atomicStoreFNaNbNiKOkkZv 1000CBE4
 0005:00008CD0       _D4core6memory2GC6__initZ  10027CD0
 0003:0000B354       _D4core6memory2GC8addRangeFNbxPvkxC8TypeInfoZv 1000E354
 0005:000011E0       _D4core6thread11ThreadError6__initZ 100201E0
 0005:00001260       _D4core6thread11ThreadError6__vtblZ 10020260
 0005:00001210       _D4core6thread11ThreadError7__ClassZ 10020210
 0005:00001148       _D4core6thread11ThreadGroup6__initZ 10020148
 0005:000011B0       _D4core6thread11ThreadGroup6__vtblZ 100201B0
 0005:00001160       _D4core6thread11ThreadGroup7__ClassZ 10020160
 0003:000031AC       _D4core6thread11ThreadGroup7joinAllMFbZv 100061AC
 0003:000030D0       _D4core6thread11ThreadGroup7opApplyMFMDFKC4core6thread6ThreadZiZi 100060D0
 0005:00000630       _D4core6thread12__ModuleInfoZ 1001F630
 0005:000087A0       _D4core6thread12suspendDepthk 100277A0
 0005:00005F08       _D4core6thread13onThreadErrorFNbAyaC6object9ThrowableZ5errorC4core6thread11ThreadError 10024F08
 0003:00012CB8       _D4core6thread13onThreadErrorFNbAyaC6object9ThrowableZv 10015CB8
 0003:000017F0       _D4core6thread14getStackBottomFNbZPv 100047F0
 0003:00001FD8       _D4core6thread14thread_joinAllUZ14__foreachbody1MFKC4core6thread6ThreadZi 10004FD8
 0003:000030A8       _D4core6thread15ThreadException6__ctorMFNaNbNfAyaAyakC6object9ThrowableZC4core6thread15ThreadException 100060A8
 0005:00001060       _D4core6thread15ThreadException6__initZ 10020060
 0005:000010E0       _D4core6thread15ThreadException6__vtblZ 100200E0
 0005:00001090       _D4core6thread15ThreadException7__ClassZ 10020090
 0003:00012B48       _D4core6thread15scanAllTypeImplFNbMDFNbE4core6thread8ScanTypePvPvZvPvZ20__T9__lambda3TPvTPvZ9__lambda3MFNbPvPvZv 10015B48
 0003:00012A74       _D4core6thread15scanAllTypeImplFNbMDFNbE4core6thread8ScanTypePvPvZvPvZv 10015A74
 0005:00000534       _D4core6thread16CREATE_SUSPENDEDxi 1001F534
 0005:0000879C       _D4core6thread17multiThreadedFlagb 1002779C
 0003:000004F0       _D4core6thread17thread_findByAddrFkZ14__foreachbody2MFNaNbNiNfKC4core6thread6ThreadZi 100034F0
 0003:0000041C       _D4core6thread17thread_findByAddrFkZC4core6thread6Thread 1000341C
 0005:00000530       _D4core6thread18TLS_OUT_OF_INDEXESxk 1001F530
 0003:00012B64       _D4core6thread18callWithStackShellFNbMDFNbPvZvZv 10015B64
 0003:0001051C       _D4core6thread18thread_scanAllTypeUNbMDFNbE4core6thread8ScanTypePvPvZvZ17__T9__lambda2TPvZ9__lambda2MFNbPvZv 1001351C
 0003:00001700       _D4core6thread19_sharedStaticDtor95FZv 10004700
 0003:000017AC       _D4core6thread20_sharedStaticCtor105FZv 100047AC
 0003:00007154       _D4core6thread20thread_attachByAddrBUkPvZ9__lambda3MFZv 1000A154
 0003:000034B8       _D4core6thread5Fiber6__ctorMFNbZC4core6thread5Fiber 100064B8
 0003:0000344C       _D4core6thread5Fiber6__dtorMFNbZv 1000644C
 0005:000013A0       _D4core6thread5Fiber6__initZ 100203A0
 0005:00001420       _D4core6thread5Fiber6__vtblZ 10020420
 0005:000013D0       _D4core6thread5Fiber7__ClassZ 100203D0
 0004:00000040       _D4core6thread5Fiber7sm_thisC4core6thread5Fiber 1001E040
 0005:00008830       _D4core6thread5Fiber9initStackMFNbZ12finalHandlerPFZv 10027830
 0005:00008838       _D4core6thread5Fiber9initStackMFNbZ22EXCEPTION_REGISTRATION6__initZ 10027838
 0005:00008734       _D4core6thread6Thread12PRIORITY_MAXxi 10027734
 0005:00008730       _D4core6thread6Thread12PRIORITY_MINxi 10027730
 0005:00008738       _D4core6thread6Thread16PRIORITY_DEFAULTxi 10027738
 0003:000016E0       _D4core6thread6Thread19_sharedStaticCtor90FZv 100046E0
 0003:000018F4       _D4core6thread6Thread3addFNbC4core6thread6ThreadZv 100048F4
 0003:00001818       _D4core6thread6Thread3addFNbPS4core6thread6Thread7ContextZv 10004818
 0003:00004954       _D4core6thread6Thread4joinMFbZC6object9Throwable 10007954
 0003:000017F8       _D4core6thread6Thread6__ctorMFkZC4core6thread6Thread 100047F8
 0003:00002F9C       _D4core6thread6Thread6__dtorMFZv 10005F9C
 0005:00000540       _D4core6thread6Thread6__initZ 1001F540
 0005:00000610       _D4core6thread6Thread6__vtblZ 1001F610
 0005:00008740       _D4core6thread6Thread6_locksG2G40g 10027740
 0003:000048D0       _D4core6thread6Thread6removeFNbC4core6thread6ThreadZv 100078D0
 0005:000005C0       _D4core6thread6Thread7__ClassZ 1001F5C0
 0003:000012D4       _D4core6thread6Thread7opApplyFMDFKC4core6thread6ThreadZiZi 100042D4
 0003:0000B184       _D4core6thread6Thread7setThisFC4core6thread6ThreadZv 1000E184
 0005:00008790       _D4core6thread6Thread7sm_cbegPS4core6thread6Thread7Context 10027790
 0005:0000873C       _D4core6thread6Thread7sm_mainC4core6thread6Thread 1002773C
 0005:00008794       _D4core6thread6Thread7sm_tbegC4core6thread6Thread 10027794
 0004:00000020       _D4core6thread6Thread7sm_thisC4core6thread6Thread 1001E020
 0005:00008798       _D4core6thread6Thread7sm_tlenk 10027798
 0003:0000483C       _D4core6thread6Thread8isDaemonMFNdZb 1000783C
 0003:00002ED4       _D4core6thread6Thread9isRunningMFNbNdZb 10005ED4
 0003:000109BC       _D4core6thread6resumeFNbC4core6thread6ThreadZv 100139BC
 0003:00010844       _D4core6thread7suspendFNbC4core6thread6ThreadZv 10013844
 0005:000087A4       _D4core6thread8PAGESIZEyk  100277A4
 0003:0000A69C       _D4core6th·ad14˝_scanAllUNbMDF·Pv…Z…43__T9Ÿlambda2TEÄåº8SÄÉ¥TypeTPv“ZÄä®MÄÉ¬Äñ´ÄÜÿ 1000D69C
 0005:000003F0       _D4core7runtime12__ModuleInfoZ 1001F3F0
 0003:00000C84       _D4core7runtime13_staticCtor86FZv 10003C84
 0003:00002438       _D4core7runtime19defaultTraceHandlerFPvZC6object9Throwable9TraceInfo 10005438
 0003:0000E1F0       _D4core8demangle15decodeDmdStringFAxaKkZAya 100111F0
 0003:0000C660       _D4core8demangle8Demangle10parseLNameMFZv 1000F660
 0003:0000D250       _D4core8demangle8Demangle10parseValueMFAaaZv 10010250
 0003:0000C33C       _D4core8demangle8Demangle11sliceNumberMFZAxa 1000F33C
 0003:0000C38C       _D4core8demangle8Demangle12decodeNumberMFAxaZk 1000F38C
 0003:0000CDCC       _D4core8demangle8Demangle13parseFuncAttrMFZv 1000FDCC
 0005:000037B0       _D4core8demangle8Demangle14ParseException6__initZ 100227B0
 0005:00003830       _D4core8demangle8Demangle14ParseException6__vtblZ 10022830
 0005:000037E0       _D4core8demangle8Demangle14ParseException7__ClassZ 100227E0
 0003:0000DF74       _D4core8demangle8Demangle15parseSymbolNameMFZv 10010F74
 0003:0000D220       _D4core8demangle8Demangle16isCallConventionFaZb 10010220
 0003:0000E15C       _D4core8demangle8Demangle16parseMangledNameMFkZv 1001115C
 0005:00003850       _D4core8demangle8Demangle17OverflowException6__initZ 10022850
 0005:000038D0       _D4core8demangle8Demangle17OverflowException6__vtblZ 100228D0
 0005:00003880       _D4core8demangle8Demangle17OverflowException7__ClassZ 10022880
 0003:0000D6F0       _D4core8demangle8Demangle17parseIntegerValueMFAaaZv 100106F0
 0003:0000DC20       _D4core8demangle8Demangle17parseTemplateArgsMFZ12__dgliteral1MFNaNiNfZv 10010C20
 0003:0000DA54       _D4core8demangle8Demangle17parseTemplateArgsMFZv 10010A54
 0003:0000D054       _D4core8demangle8Demangle17parseTypeFunctionMFAaE4core8demangle8Demangle10IsDelegateZAa 10010054
 0003:0000CEF8       _D4core8demangle8Demangle18parseFuncArgumentsMFZv 1000FEF8
 0003:0000E038       _D4core8demangle8Demangle18parseQualifiedNameMFZAa 10011038
 0003:0000DC38       _D4core8demangle8Demangle19mayBeMangledNameArgMFZb 10010C38
 0003:0000CD14       _D4core8demangle8Demangle19parseCallConventionMFZv 1000FD14
 0003:0000DE58       _D4core8demangle8Demangle25mayBeTemplateInstanceNameMFZb 10010E58
 0003:0000DD44       _D4core8demangle8Demangle25parseTemplateInstanceNameMFZv 10010D44
 0003:0000C1C0       _D4core8demangle8Demangle3putMFAxaZAa 1000F1C0
 0003:0000C2A0       _D4core8demangle8Demangle3tokMFZa 1000F2A0
 0003:0000C2DC       _D4core8demangle8Demangle4nextMFZv 1000F2DC
 0003:0000C2C0       _D4core8demangle8Demangle4testMFaZv 1000F2C0
 0003:0000C2F8       _D4core8demangle8Demangle5matchMFAxaZv 1000F2F8
 0003:0000C0C8       _D4core8demangle8Demangle5shiftMFAxaZ4exchMFkkZv 1000F0C8
 0003:0000C05C       _D4core8demangle8Demangle5shiftMFAxaZAa 1000F05C
 0003:0000BE70       _D4core8demangle8Demangle67__T10doDemangleS48_D4core8demangle8Demangle16parseMangledNameMFkZvZ10doDemangleMFZAa 1000EE70
 0003:0000BF68       _D4core8demangle8Demangle6__ctorMFNcAxaAaZS4core8demangle8Demangle 1000EF68
 0003:0000BF88       _D4core8demangle8Demangle6__ctorMFNcAxaE4core8demangle8Demangle7AddTypeAaZS4core8demangle8Demangle 1000EF88
 0005:00003770       _D4core8demangle8Demangle6__initZ 10022770
 0003:0000C104       _D4core8demangle8Demangle6appendMFAxaZAa 1000F104
 0003:0000C00C       _D4core8demangle8Demangle8containsFAxaAxaZb 1000F00C
 0003:0000C214       _D4core8demangle8Demangle8putAsHexMFkiZAa 1000F214
 0003:0000BFB4       _D4core8demangle8Demangle9ascii2hexFaZh 1000EFB4
 0003:0000C3F0       _D4core8demangle8Demangle9parseRealMFZv 1000F3F0
 0005:00003A30       _D4core8demangle8Demangle9parseTypeMFAaZ10primitivesyG23Aa 10022A30
 0003:0000C784       _D4core8demangle8Demangle9parseTypeMFAaZAa 1000F784
 0003:00012FCC       _D4core9exception10RangeError6__ctorMFNaNbNfAyakC6object9ThrowableZC4core9exception10RangeError 10015FCC
 0005:00006120       _D4core9exception10RangeError6__initZ 10025120
 0005:000061A0       _D4core9exception10RangeError6__vtblZ 100251A0
 0005:00006150       _D4core9exception10RangeError7__ClassZ 10025150
 0005:00006230       _D4core9exception13FinalizeError6__initZ 10025230
 0005:000062B0       _D4core9exception13FinalizeError6__vtblZ 100252B0
 0005:00006260       _D4core9exception13FinalizeError7__ClassZ 10025260
 0003:00013040       _D4core9exception13FinalizeError8toStringMxFNfZAya 10016040
 0005:00005D6C       _D4core9exception15onFinalizeErrorUNbNeC8TypeInfoC6object9ThrowableAyakZ3errC4core9exception13FinalizeError 10024D6C
 0005:000014B0       _D4core9exception16OutOfMemoryError6__initZ 100204B0
 0005:00001530       _D4core9exception16OutOfMemoryError6__vtblZ 10020530
 0005:000014E0       _D4core9exception16OutOfMemoryError7__ClassZ 100204E0
 0003:00003550       _D4core9exception16OutOfMemoryError8toStringMxFNeZAya 10006550
 0005:000054D0       _D4core9exception27InvalidMemoryOperationError6__initZ 100244D0
 0005:00005550       _D4core9exception27InvalidMemoryOperationError6__vtblZ 10024550
 0005:00005500       _D4core9exception27InvalidMemoryOperationError7__ClassZ 10024500
 0003:000104E8       _D4core9exception27InvalidMemoryOperationError8toStringMxFNeZAya 100134E8
 0005:00000F90       _D6Object6__initZ          1001FF90
 0005:00000FF0       _D6Object6__vtblZ          1001FFF0
 0005:00000FA0       _D6Object7__ClassZ         1001FFA0
 0005:00004D40       _D6object10MemberInfo6__initZ 10023D40
 0005:00004DA0       _D6object10MemberInfo6__vtblZ 10023DA0
 0005:00004D50       _D6object10MemberInfo7__ClassZ 10023D50
 0003:000026D8       _D6object10ModuleInfo15importedModulesMxFNaNbNdZAyPS6object10ModuleInfo 100056D8
 0003:00002708       _D6object10ModuleInfo4nameMxFNaNbNdZAya 10005708
 0005:000087F0       _D6object10ModuleInfo6__initZ 100277F0
 0003:000025DC       _D6object10ModuleInfo6addrOfMxFNaNbiZPv 100055DC
 0003:00012514       _D6object10getElementFNaNbNeNgC8TypeInfoZNgC8TypeInfo 10015514
 0005:000026A0       _D6object12__ModuleInfoZ   100216A0
 0003:0000FE5C       _D6object12getArrayHashFNbNexC8TypeInfoxPvxkZ15hasCustomToHashFNaNbNexC8TypeInfoZb 10012E5C
 0003:0000FDE0       _D6object12getArrayHashFNbNexC8TypeInfoxPvxkZk 10012DE0
 0005:00008A30       _D6object12traceHandlerPFPvZC6object9Throwable9TraceInfo 10027A30
 0003:00009728       _D6object14TypeInfo_Array4nextMNgFNaNbNdNiZNgC8TypeInfo 1000C728
 0003:000096EC       _D6object14TypeInfo_Array4swapMxFPvPvZv 1000C6EC
 0003:00009730       _D6object14TypeInfo_Array5flagsMxFNaNbNdNiNfZk 1000C730
 0003:000096E4       _D6object14TypeInfo_Array5tsizeMxFNaNbNdNiNfZk 1000C6E4
 0003:000095BC       _D6object14TypeInfo_Array6equalsMxFxPvxPvZb 1000C5BC
 0003:00009738       _D6object14TypeInfo_Array6talignMxFNaNbNdNiNfZk 1000C738
 0003:0000964C       _D6object14TypeInfo_Array7compareMxFxPvxPvZi 1000C64C
 0003:00009590       _D6object14TypeInfo_Array7getHashMxFNbNexPvZk 1000C590
 0003:00009528       _D6object14TypeInfo_Array8opEqualsMFC6ObjectZb 1000C528
 0003:00009500       _D6object14TypeInfo_Array8toStringMxFNaNbNfZAya 1000C500
 0005:00001280       _D6object14TypeInfo_Class10ClassFlags6__initZ 10020280
 0003:000033EC       _D6object14TypeInfo_Class4infoMxFNaNbNdNfZxC14TypeInfo_Class 100063EC
 0003:000033D8       _D6object14TypeInfo_Class5flagsMxFNaNbNdNiNfZk 100063D8
 0003:000033E0       _D6object14TypeInfo_Class5offTiMxFNaNbNdZAxS6object14OffsetTypeInfo 100063E0
 0003:000033D0       _D6object14TypeInfo_Class5tsizeMxFNaNbNdNiNfZk 100063D0
 0003:000033FC       _D6object14TypeInfo_Class6createMxFZC6Object 100063FC
 0003:0000334C       _D6object14TypeInfo_Class6equalsMxFxPvxPvZb 1000634C
 0003:000033F4       _D6object14TypeInfo_Class6rtInfoMxFNaNbNdNiNfZPyv 100063F4
 0003:00003384       _D6object14TypeInfo_Class7compareMxFxPvxPvZi 10006384
 0003:0000332C       _D6object14TypeInfo_Class7getHashMxFNbNexPvZk 1000632C
 0003:00003288       _D6object14TypeInfo_Class8opEqualsMFC6ObjectZb 10006288
 0003:00003278       _D6object14TypeInfo_Class8toStringMxFNaNbNfZAya 10006278
 0003:000033F0       _D6object14TypeInfo_Class8typeinfoMxFNaNbNdNfZxC14TypeInfo_Class 100063F0
 0003:0000F080       _D6object14TypeInfo_Const4initMxFNaNbNiNfZAxv 10012080
 0003:0000F068       _D6object14TypeInfo_Const4nextMNgFNaNbNdNiZNgC8TypeInfo 10012068
 0003:0000F050       _D6object14TypeInfo_Const4swapMxFPvPvZv 10012050
 0003:0000F074       _D6object14TypeInfo_Const5flagsMxFNaNbNdNiNfZk 10012074
 0003:0000F044       _D6object14TypeInfo_Const5tsizeMxFNaNbNdNiNfZk 10012044
 0003:0000F014       _D6object14TypeInfo_Const6equalsMxFxPvxPvZb 10012014
 0003:0000F08C       _D6object14TypeInfo_Const6talignMxFNaNbNdNiNfZk 1001208C
 0003:0000F02C       _D6object14TypeInfo_Const7compareMxFxPvxPvZi 1001202C
 0003:0000F000       _D6object14TypeInfo_Const7getHashMxFNbNfxPvZk 10012000
 0003:0000EFA8       _D6object14TypeInfo_Const8opEqualsMFC6ObjectZb 10011FA8
 0003:0000EF50       _D6object14TypeInfo_Const8toStringMxFNaNbNfZAya 10011F50
 0003:0000F444       _D6object14TypeInfo_Inout8toStringMxFNaNbNfZAya 10012444
 0003:0000F288       _D6object14TypeInfo_Tuple4swapMxFPvPvZv 10012288
 0003:0000F284       _D6object14TypeInfo_Tuple5tsizeMxFNaNbNdNiNfZk 10012284
 0003:0000F27C       _D6object14TypeInfo_Tuple6equalsMxFxPvxPvZb 1001227C
 0003:0000F294       _D6object14TypeInfo_Tuple6talignMxFNaNbNdNiNfZk 10012294
 0003:0000F280       _D6object14TypeInfo_Tuple7compareMxFxPvxPvZi 10012280
 0003:0000F28C       _D6object14TypeInfo_Tuple7destroyMxFPvZv 1001228C
 0003:0000F278       _D6object14TypeInfo_Tuple7getHashMxFNbNfxPvZk 10012278
 0003:0000F204       _D6object14TypeInfo_Tuple8opEqualsMFC6ObjectZb 10012204
 0003:0000F290       _D6object14TypeInfo_Tuple8postblitMxFPvZv 10012290
 0003:0000F140       _D6object14TypeInfo_Tuple8toStringMxFNaNbNfZAya 10012140
 0003:0000E364       _D6object14__T4_dupTxaTaZ4_dupFNaNbAxaZAa 10011364
 0003:0000E6FC       _D6object15TypeInfo_Shared8toStringMxFNaNbNfZAya 100116FC
 0005:00004310       _D6object15TypeInfo_Struct11StructFlags6__initZ 10023310
 0003:0000E55C       _D6object15TypeInfo_Struct4initMxFNaNbNiNfZAxv 1001155C
 0003:0000E568       _D6object15TypeInfo_Struct5flagsMxFNaNbNdNiNfZk 10011568
 0003:0000E554       _D6object15TypeInfo_Struct5tsizeMxFNaNbNdNiNfZk 10011554
 0003:0000E480       _D6object15TypeInfo_Struct6equalsMxFNaNbNexPvxPvZb 10011480
 0003:0000E5A0       _D6object15TypeInfo_Struct6rtInfoMxFNaNbNdNiNfZPyv 100115A0
 0003:0000E570       _D6object15TypeInfo_Struct6talignMxFNaNbNdNiNfZk 10011570
 0003:0000E4F0       _D6object15TypeInfo_Struct7compareMxFNaNbNexPvxPvZi 100114F0
 0003:0000E578       _D6object15TypeInfo_Struct7destroyMxFPvZv 10011578
 0003:0000E454       _D6object15TypeInfo_Struct7getHashMxFNaNbNfxPvZk 10011454
 0003:0000E3CC       _D6object15TypeInfo_Struct8opEqualsMFC6ObjectZb 100113CC
 0003:0000E58C       _D6object15TypeInfo_Struct8postblitMxFPvZv 1001158C
 0003:0000E3C0       _D6object15TypeInfo_Struct8toStringMxFNaNbNfZAya 100113C0
 0003:0000E6E8       _D6object15TypeInfo_Vector4initMxFNaNbNiNfZAxv 100116E8
 0003:0000E6D0       _D6object15TypeInfo_Vector4nextMNgFNaNbNdNiZNgC8TypeInfo 100116D0
 0003:0000E6B8       _D6object15TypeInfo_Vector4swapMxFPvPvZv 100116B8
 0003:0000E6DC       _D6object15TypeInfo_Vector5flagsMxFNaNbNdNiNfZk 100116DC
 0003:0000E6AC       _D6object15TypeInfo_Vector5tsizeMxFNaNbNdNiNfZk 100116AC
 0003:0000E67C       _D6object15TypeInfo_Vector6equalsMxFxPvxPvZb 1001167C
 0003:0000E6F4       _D6object15TypeInfo_Vector6talignMxFNaNbNdNiNfZk 100116F4
 0003:0000E694       _D6object15TypeInfo_Vector7compareMxFxPvxPvZi 10011694
 0003:0000E668       _D6object15TypeInfo_Vector7getHashMxFNbNfxPvZk 10011668
 0003:0000E600       _D6object15TypeInfo_Vector8opEqualsMFC6ObjectZb 10011600
 0003:0000E5A8       _D6object15TypeInfo_Vector8toStringMxFNaNbNfZAya 100115A8
 0003:0000EF34       _D6object16MemberInfo_field4nameMFNaNbNdZAya 10011F34
 0005:00004B00       _D6object16MemberInfo_field6__initZ 10023B00
 0005:00004B70       _D6object16MemberInfo_field6__vtblZ 10023B70
 0003:0000EF48       _D6object16MemberInfo_field6offsetMFNaNbNdZk 10011F48
 0005:00004B20       _D6object16MemberInfo_field7__ClassZ 10023B20
 0003:0000EF40       _D6object16MemberInfo_field8typeInfoMFNaNbNdZC8TypeInfo 10011F40
 0003:0000F434       _D6object16TypeInfo_Pointer4nextMNgFNaNbNdNiZNgC8TypeInfo 10012434
 0003:0000F41C       _D6object16TypeInfo_Pointer4swapMxFPvPvZv 1001241C
 0003:0000F43C       _D6object16TypeInfo_Pointer5flagsMxFNaNbNdNiNfZk 1001243C
 0003:0000F414       _D6object16TypeInfo_Pointer5tsizeMxFNaNbNdNiNfZk 10012414
 0003:0000F3CC       _D6object16TypeInfo_Pointer6equalsMxFxPvxPvZb 100123CC
 0003:0000F3E8       _D6object16TypeInfo_Pointer7compareMxFxPvxPvZi 100123E8
 0003:0000F3C0       _D6object16TypeInfo_Pointer7getHashMxFNbNexPvZk 100123C0
 0003:0000F358       _D6object16TypeInfo_Pointer8opEqualsMFC6ObjectZb 10012358
 0003:0000F330       _D6object16TypeInfo_Pointer8toStringMxFNaNbNfZAya 10012330
 0003:0000EB98       _D6object16TypeInfo_Typedef4initMxFNaNbNiNfZAxv 10011B98
 0003:0000EB80       _D6object16TypeInfo_Typedef4nextMNgFNaNbNdNiZNgC8TypeInfo 10011B80
 0003:0000EB68       _D6object16TypeInfo_Typedef4swapMxFPvPvZv 10011B68
 0003:0000EB8C       _D6object16TypeInfo_Typedef5flagsMxFNaNbNdNiNfZk 10011B8C
 0003:0000EB5C       _D6object16TypeInfo_Typedef5tsizeMxFNaNbNdNiNfZk 10011B5C
 0003:0000EB2C       _D6object16TypeInfo_Typedef6equalsMxFxPvxPvZb 10011B2C
 0003:0000EBC0       _D6object16TypeInfo_Typedef6rtInfoMxFNaNbNdNiNfZPyv 10011BC0
 0003:0000EBB4       _D6object16TypeInfo_Typedef6talignMxFNaNbNdNiNfZk 10011BB4
 0003:0000EB44       _D6object16TypeInfo_Typedef7compareMxFxPvxPvZi 10011B44
 0003:0000EB18       _D6object16TypeInfo_Typedef7getHashMxFNbNfxPvZk 10011B18
 0003:0000EA88       _D6object16TypeInfo_Typedef8opEqualsMFC6ObjectZb 10011A88
 0003:0000EA7C       _D6object16TypeInfo_Typedef8toStringMxFNaNbNfZAya 10011A7C
 0003:0000F130       _D6object17TypeInfo_Delegate5flagsMxFNaNbNdNiNfZk 10012130
 0003:0000F128       _D6object17TypeInfo_Delegate5tsizeMxFNaNbNdNiNfZk 10012128
 0003:0000F138       _D6object17TypeInfo_Delegate6talignMxFNaNbNdNiNfZk 10012138
 0003:0000F0C0       _D6object17TypeInfo_Delegate8opEqualsMFC6ObjectZb 100120C0
 0003:0000F098       _D6object17TypeInfo_Delegate8toStringMxFNaNbNfZAya 10012098
 0003:0000F328       _D6object17TypeInfo_Function5tsizeMxFNaNbNdNiNfZk 10012328
 0003:0000F2C0       _D6object17TypeInfo_Function8opEqualsMFC6ObjectZb 100122C0
 0003:0000F298       _D6object17TypeInfo_Function8toStringMxFNaNbNfZAya 10012298
 0003:0000E8A4       _D6object18TypeInfo_Interface5flagsMxFNaNbNdNiNfZk 100118A4
 0003:0000E89C       _D6object18TypeInfo_Interface5tsizeMxFNaNbNdNiNfZk 1001189C
 0003:0000E7F0       _D6object18TypeInfo_Interface6equalsMxFxPvxPvZb 100117F0
 0003:0000E844       _D6object18TypeInfo_Interface7compareMxFxPvxPvZi 10011844
 0003:0000E7D4       _D6object18TypeInfo_Interface7getHashMxFNbNexPvZk 100117D4
 0003:0000E760       _D6object18TypeInfo_Interface8opEqualsMFC6ObjectZb 10011760
 0003:0000E754       _D6object18TypeInfo_Interface8toStringMxFNaNbNfZAya 10011754
 0003:0000EA24       _D6object18TypeInfo_Invariant8toStringMxFNaNbNfZAya 10011A24
 0003:0000EA14       _D6object19MemberInfo_function2fpMFNaNbNdZPv 10011A14
 0003:0000EA00       _D6object19MemberInfo_function4nameMFNaNbNdZAya 10011A00
 0003:0000EA1C       _D6object19MemberInfo_function5flagsMFNaNbNdZk 10011A1C
 0005:000047F0       _D6object19MemberInfo_function6__initZ 100237F0
 0005:00004860       _D6object19MemberInfo_function6__vtblZ 10023860
 0005:00004810       _D6object19MemberInfo_function7__ClassZ 10023810
 0003:0000EA0C       _D6object19MemberInfo_function8typeInfoMFNaNbNdZC8TypeInfo 10011A0C
 0003:0001207C       _D6object19__T11_doPostblitTaZ11_doPostblitFNaNbNiNfAaZv 1001507C
 0003:0000EE74       _D6object20TypeInfo_StaticArray4initMxFNaNbNiNfZAxv 10011E74
 0003:0000EE80       _D6object20TypeInfo_StaticArray4nextMNgFNaNbNdNiZNgC8TypeInfo 10011E80
 0003:0000EDBC       _D6object20TypeInfo_StaticArray4swapMxFPvPvZv 10011DBC
 0003:0000EE88       _D6object20TypeInfo_StaticArray5flagsMxFNaNbNdNiNfZk 10011E88
 0003:0000ED98       _D6object20TypeInfo_StaticArray5tsizeMxFNaNbNdNiNfZk 10011D98
 0003:0000ECCC       _D6object20TypeInfo_StaticArray6equalsMxFxPvxPvZb 10011CCC
 0003:0000EF28       _D6object20TypeInfo_StaticArray6talignMxFNaNbNdNiNfZk 10011F28
 0003:0000ED28       _D6object20TypeInfo_StaticArray7compareMxFxPvxPvZi 10011D28
 0003:0000EE94       _D6object20TypeInfo_StaticArray7destroyMxFPvZv 10011E94
 0003:0000ECB8       _D6object20TypeInfo_StaticArray7getHashMxFNbNexPvZk 10011CB8
 0003:0000EC48       _D6object20TypeInfo_StaticArray8opEqualsMFC6ObjectZb 10011C48
 0003:0000EEEC       _D6object20TypeInfo_StaticArray8postblitMxFPvZv 10011EEC
 0003:0000EBCC       _D6object20TypeInfo_StaticArray8toStringMxFNaNbNfZAya 10011BCC
 0003:00012EC4       _D6object20__T12_getPostblitTaZ12_getPostblitFNaNbNiNeZDFNaNbNiNfKaZv 10015EC4
 0003:0000E9E8       _D6object25TypeInfo_AssociativeArray4nextMNgFNaNbNdNiZNgC8TypeInfo 100119E8
 0003:0000E9F0       _D6object25TypeInfo_AssociativeArray5flagsMxFNaNbNdNiNfZk 100119F0
 0003:0000E9E0       _D6object25TypeInfo_AssociativeArray5tsizeMxFNaNbNdNiNfZk 100119E0
 0003:0000E9AC       _D6object25TypeInfo_AssociativeArray6equalsMxFNexPvxPvZb 100119AC
 0003:0000E9F8       _D6object25TypeInfo_AssociativeArray6talignMxFNaNbNdNiNfZk 100119F8
 0003:0000E9CC       _D6object25TypeInfo_AssociativeArray7getHashMxFNbNexPvZk 100119CC
 0003:0000E91C       _D6object25TypeInfo_AssociativeArray8opEqualsMFC6ObjectZb 1001191C
 0003:0000E8AC       _D6object25TypeInfo_AssociativeArray8toStringMxFNaNbNfZAya 100118AC
 0003:00002E08       _D6object5Error6__ctorMFNaNbNfAyaAyakC6object9ThrowableZC6object5Error 10005E08
 0003:00002DE8       _D6object5Error6__ctorMFNaNbNfAyaC6object9ThrowableZC6object5Error 10005DE8
 0005:00000DF0       _D6object5Error6__initZ    1001FDF0
 0005:00000E70       _D6object5Error6__vtblZ    1001FE70
 0005:00000E20       _D6object5Error7__ClassZ   1001FE20
 0003:00002F20       _D6object6Object5opCmpMFC6ObjectZi 10005F20
 0003:00002F1C       _D6object6Object6toHashMFNbNeZk 10005F1C
 0005:00000F40       _D6object6Object7Monitor11__InterfaceZ 1001FF40
 0003:00002F8C       _D6object6Object8opEqualsMFC6ObjectZb 10005F8C
 0003:00002F0C       _D6object6Object8toStringMFZAya 10005F0C
 0003:00008350       _D6object7__arrayZ         1000B350
 0003:0000FB08       _D6object7_xopCmpFxPvxPvZb 10012B08
 0003:00009320       _D6object8TypeInfo4initMxFNaNbNiNfZAxv 1000C320
 0003:00009318       _D6object8TypeInfo4nextMNgFNaNbNdNiZNgC8TypeInfo 1000C318
 0003:000092E4       _D6object8TypeInfo4swapMxFPvPvZv 1000C2E4
 0003:00009328       _D6object8TypeInfo5flagsMxFNaNbNdNiNfZk 1000C328
 0003:00009330       _D6object8TypeInfo5offTiMxFZAxS6object14OffsetTypeInfo 1000C330
 0003:000091B0       _D6object8TypeInfo5opCmpMFC6ObjectZi 1000C1B0
 0003:000092DC       _D6object8TypeInfo5tsizeMxFNaNbNdNiNfZk 1000C2DC
 0003:000092B0       _D6object8TypeInfo6equalsMxFxPvxPvZb 1000C2B0
 0003:00009350       _D6object8TypeInfo6rtInfoMxFNaNbNdNiNfZPyv 1000C350
 0003:00009348       _D6object8TypeInfo6talignMxFNaNbNdNiNfZk 1000C348
 0003:00009138       _D6object8TypeInfo6toHashMxFNbNeZk 1000C138
 0003:000092C4       _D6object8TypeInfo7compareMxFxPvxPvZi 1000C2C4
 0003:00009338       _D6object8TypeInfo7destroyMxFPvZv 1000C338
 0003:000092A4       _D6object8TypeInfo7getHashMxFNbNexPvZk 1000C2A4
 0003:0000920C       _D6object8TypeInfo8opEqualsMFC6ObjectZb 1000C20C
 0003:00009340       _D6object8TypeInfo8postblitMxFPvZv 1000C340
 0003:00009128       _D6object8TypeInfo8toStringMxFNaNbNfZAya 1000C128
 0003:0000FD58       _D6object8opEqualsFC6ObjectC6ObjectZb 10012D58
 0003:000025B4       _D6object9Exception6__ctorMFNaNbNfAyaAyakC6object9ThrowableZC9Exception 100055B4
 0003:00001D88       _D6object9Throwable6__ctorMFNaNbNfAyaAyakC6object9ThrowableZC6object9Throwable 10004D88
 0003:00001D6C       _D6object9Throwable6__ctorMFNaNbNfAyaC6object9ThrowableZC6object9Throwable 10004D6C
 0005:00000810       _D6object9Throwable6__initZ 1001F810
 0005:00000890       _D6object9Throwable6__vtblZ 1001F890
 0005:00000840       _D6object9Throwable7__ClassZ 1001F840
 0003:00001DFC       _D6object9Throwable8toStringMFZ18__T9__lambda1TxAaZ9__lambda1MFNaNbNfxAaZv 10004DFC
 0003:00001DC0       _D6object9Throwable8toStringMFZAya 10004DC0
 0003:00001F34       _D6object9Throwable8toStringMxFMDFxAaZvZ14__foreachbody2MFKxAaZi 10004F34
 0003:00001E1C       _D6object9Throwable8toStringMxFMDFxAaZvZv 10004E1C
 0005:00000720       _D6object9Throwable9TraceInfo11__InterfaceZ 1001F720
 0005:000000C0       _D7dllmain12__ModuleInfoZ  1001F0C0
 0005:00008570       _D7dllmain7g_hInstPv       10027570
 0005:00002858       _D8TypeInfo6__initZ        10021858
 0005:000028B0       _D8TypeInfo6__vtblZ        100218B0
 0005:00002860       _D8TypeInfo7__ClassZ       10021860
 0005:00000090       _D8kpropdll12__ModuleInfoZ 1001F090
 0003:00000124       _D8kpropdll7__arrayZ       10003124
 0005:00000AD0       _D9Exception6__initZ       1001FAD0
 0005:00000B50       _D9Exception6__vtblZ       1001FB50
 0005:00000B00       _D9Exception7__ClassZ      1001FB00
 0003:0001A520  Imp  _DeleteCriticalSection@4 (KERNEL32.dll.DeleteCriticalSection)
 0003:0001A44E  Imp  _DeleteFileA@4       (KERNEL32.dll.DeleteFileA)
 0003:0000013C       _DllMain@12                1000313C
 0003:0001A54A  Imp  _DuplicateHandle@28  (KERNEL32.dll.DuplicateHandle)
 0003:0001A562  Imp  _EnterCriticalSection@4 (KERNEL32.dll.EnterCriticalSection)
 0003:0001A448  Imp  _ExitProcess@4       (KERNEL32.dll.ExitProcess)
 0003:00019218       _FREEBUF                   1001C218
 0003:00008440       _FixupDebugHeader@24       1000B440
 0003:0001A490  Imp  _FreeEnvironmentStringsA@4 (KERNEL32.dll.FreeEnvironmentStringsA)
 0003:0001A532  Imp  _FreeLibrary@4       (KERNEL32.dll.FreeLibrary)
 0003:0001A424  Imp  _GetACP@0            (KERNEL32.dll.GetACP)
 0003:0001A430  Imp  _GetCPInfo@8         (KERNEL32.dll.GetCPInfo)
 0003:0001A526  Imp  _GetConsoleWindow@0  (KERNEL32.dll.GetConsoleWindow)
 0003:0001A550  Imp  _GetCurrentProcess@0 (KERNEL32.dll.GetCurrentProcess)
 0003:0001A574  Imp  _GetCurrentProcessId@0 (KERNEL32.dll.GetCurrentProcessId)
 0003:0001A556  Imp  _GetCurrentThread@0  (KERNEL32.dll.GetCurrentThread)
 0003:0001A586  Imp  _GetCurrentThreadId@0 (KERNEL32.dll.GetCurrentThreadId)
 0003:0001A496  Imp  _GetEnvironmentStrings@0 (KERNEL32.dll.GetEnvironmentStrings)
 0003:0001A4D8  Imp  _GetEnvironmentVariableA@12 (KERNEL32.dll.GetEnvironmentVariableA)
 0003:0001A50E  Imp  _GetExitCodeThread@8 (KERNEL32.dll.GetExitCodeThread)
 0003:0001A418  Imp  _GetFileType@4       (KERNEL32.dll.GetFileType)
 0003:0001A442  Imp  _GetLastError@0      (KERNEL32.dll.GetLastError)
 0003:0001A48A  Imp  _GetLocalTime@4      (KERNEL32.dll.GetLocalTime)
 0003:0001A56E  Imp  _GetModuleHandleA@4  (KERNEL32.dll.GetModuleHandleA)
 0003:0001A42A  Imp  _GetOEMCP@0          (KERNEL32.dll.GetOEMCP)
 0003:0001A568  Imp  _GetProcAddress@8    (KERNEL32.dll.GetProcAddress)
 0003:0001A47E  Imp  _GetProcessHeap@0    (KERNEL32.dll.GetProcessHeap)
 0003:0001A45A  Imp  _GetStdHandle@4      (KERNEL32.dll.GetStdHandle)
 0003:0001A460  Imp  _GetStringTypeA@20   (KERNEL32.dll.GetStringTypeA)
 0003:0001A544  Imp  _GetSystemInfo@4     (KERNEL32.dll.GetSystemInfo)
 0003:0001A4C6  Imp  _GetThreadContext@8  (KERNEL32.dll.GetThreadContext)
 0003:0001A46C  Imp  _GetTickCount@0      (KERNEL32.dll.GetTickCount)
 0003:0001A41E  Imp  _GetTimeZoneInformation@4 (KERNEL32.dll.GetTimeZoneInformation)
 0003:0001A4AE  Imp  _GetVersion@0        (KERNEL32.dll.GetVersion)
 0003:0001A406  Imp  _GlobalAlloc@8       (KERNEL32.dll.GlobalAlloc)
 0003:0001A412  Imp  _GlobalFree@4        (KERNEL32.dll.GlobalFree)
 0003:0001A4EA  Imp  _GlobalMemoryStatus@4 (KERNEL32.dll.GlobalMemoryStatus)
 0003:0001A4A2  Imp  _HeapAlloc@12        (KERNEL32.dll.HeapAlloc)
 0003:0001A4A8  Imp  _HeapFree@12         (KERNEL32.dll.HeapFree)
 0003:0001A49C  Imp  _HeapReAlloc@16      (KERNEL32.dll.HeapReAlloc)
 0003:0001A4E4  Imp  _InitializeCriticalSection@4 (KERNEL32.dll.InitializeCriticalSection)
 0003:0001A484  Imp  _LCMapStringA@24     (KERNEL32.dll.LCMapStringA)
 0003:0001A55C  Imp  _LeaveCriticalSection@4 (KERNEL32.dll.LeaveCriticalSection)
 0003:0001A51A  Imp  _LoadLibraryA@4      (KERNEL32.dll.LoadLibraryA)
 0003:0001A52C  Imp  _LoadLibraryW@4      (KERNEL32.dll.LoadLibraryW)
 0003:0001A58C  Imp  _MessageBoxA@16      (USER32.dll.MessageBoxA)
 0003:0001A538  Imp  _MultiByteToWideChar@24 (KERNEL32.dll.MultiByteToWideChar)
 0003:0001A57A  Imp  _OpenThread@12       (KERNEL32.dll.OpenThread)
 0003:0001A508  Imp  _QueryPerformanceCounter@4 (KERNEL32.dll.QueryPerformanceCounter)
 0003:0001A502  Imp  _QueryPerformanceFrequency@4 (KERNEL32.dll.QueryPerformanceFrequency)
 0003:0001A4D2  Imp  _RaiseException@16   (KERNEL32.dll.RaiseException)
 0003:0001A400  Imp  _ReadFile@20         (KERNEL32.dll.ReadFile)
 0003:0001A472  Imp  _ReleaseSemaphore@12 (KERNEL32.dll.ReleaseSemaphore)
 0003:0001A4BA  Imp  _ResumeThread@4      (KERNEL32.dll.ResumeThread)
 0003:0001A4DE  Imp  _RtlCaptureContext@4 (KERNEL32.dll.RtlCaptureContext)
 0003:0001A514  Imp  _RtlUnwind@16        (KERNEL32.dll.RtlUnwind)
 0003:0001A43C  Imp  _SetFilePointer@16   (KERNEL32.dll.SetFilePointer)
 0003:0001A454  Imp  _SetHandleCount@4    (KERNEL32.dll.SetHandleCount)
 0003:0001A4CC  Imp  _Sleep@4             (KERNEL32.dll.Sleep)
 0003:0001A4C0  Imp  _SuspendThread@4     (KERNEL32.dll.SuspendThread)
 0003:0001A53E  Imp  _SwitchToThread@0    (KERNEL32.dll.SwitchToThread)
 0003:0001A4B4  Imp  _TryEnterCriticalSection@4 (KERNEL32.dll.TryEnterCriticalSection)
 0003:0001A4F0  Imp  _VirtualAlloc@16     (KERNEL32.dll.VirtualAlloc)
 0003:0001A4FC  Imp  _VirtualFree@12      (KERNEL32.dll.VirtualFree)
 0003:0001A4F6  Imp  _WaitForSingleObject@8 (KERNEL32.dll.WaitForSingleObject)
 0003:0001A466  Imp  _WideCharToMultiByte@32 (KERNEL32.dll.WideCharToMultiByte)
 0003:0001A436  Imp  _WriteConsoleA@20    (KERNEL32.dll.WriteConsoleA)
 0003:0001A40C  Imp  _WriteFile@20        (KERNEL32.dll.WriteFile)
 0005:00007424       __8087                     10026424
 0003:00018740       __8087_init                1001B740
 0005:00007424       __80x87                    10026424
 0003:00019E4A       __87TOPSW@                 1001CE4A
 0003:00003548       __D2rt8lifetime9__moddtorFZv 10006548
 0003:000024F0       __D4core3sys7windows10stacktrace15__modsharedctorFZv 100054F0
 0003:00000360       __D4core3sys7windows3dll9__modctorFZv 10003360
 0003:00000368       __D4core3sys7windows3dll9__moddtorFZv 10003368
 0003:00008720       __D4core3sys7windows7dbghelp15__modshareddtorFZv 1000B720
 0003:00003098       __D4core4time15__modsharedctorFZv 10006098
 0003:000099AC       __D4core5cpuid15__modsharedctorFZv 1000C9AC
 0003:000017D8       __D4core6thread15__modsharedctorFZv 100047D8
 0003:000017E8       __D4core6thread15__modshareddtorFZv 100047E8
 0003:00000C98       __D4core7runtime9__modctorFZv 10003C98
 0003:00019E5A       __DBLINT87@                1001CE5A
 0003:00019E7B       __DBLLNG87@                1001CE7B
 0003:00019E4F       __DBLTO87@                 1001CE4F
 0003:000137B8       __DOSIGN                   100167B8
 0003:00019E46       __DTST87@                  1001CE46
 0003:00017C5C       __DestroySemaphore         1001AC5C
 0003:000130F4       __DllMainCRTStartup@12     100160F4
 0003:00019030       __Exit                     1001C030
 0003:00019DF0       __FCOMPP@                  1001CDF0
 0003:00017BDB       __FEEXCEPT                 1001ABDB
 0003:00017BEF       __FEROUND                  1001ABEF
 0005:000063B5       __FE_DFL_ENV               100253B5
 0003:00018C9C       __FLOATCVT                 1001BC9C
 0003:00019E97       __FLTTO87@                 1001CE97
 0003:00019E0E       __FTEST0@                  1001CE0E
 0003:00019E2E       __FTEST@                   1001CE2E
 0003:00017C10       __InitSemaphoreSys         1001AC10
 0003:000146AE       __LCMP@                    100176AE
 0003:00014656       __LDIV@                    10017656
 0003:00014540       __LMUL@                    10017540
 0003:00017D54       __ReleaseSemaphore         1001AD54
 0003:000169E0       __SCANFLOAT                100199E0
 0003:00018678       __SET_ERRNO                1001B678
 0003:000197B0       __SET_NT_ERRNO             1001C7B0
 0003:000020CC       __STD_critical_term        100050CC
 0003:00018224       __STD_init_std_files       1001B224
 0003:00001D40       __STD_monitor_staticdtor   10004D40
 0003:00007278       __STI_critical_init        1000A278
 0003:000130C4       __STI_fltused              100160C4
 0003:000181F8       __STI_init_std_files       1001B1F8
 0003:00014528       __STI_io_ctor              10017528
 0003:00007254       __STI_monitor_staticctor   1000A254
 0003:0001457A       __ULDIV@                   1001757A
 0003:00018FD0       __WDOSIGN                  1001BFD0
 0003:0001759C       __WSCANFLOAT               1001A59C
 0003:00017D30       __WaitSemaphore            1001AD30
 0003:00018414       ___adjustfordst            1001B414
 0003:00018000       ___alloca                  1001B000
 0005:000077A0       ___altzone                 100267A0
 0005:000063A9       ___argc                    100253A9
 0005:000063AD       ___argv                    100253AD
 0003:000189EC       ___build_environ           1001B9EC
 0003:00018124       ___callve                  1001B124
 0005:0000A298       ___cpp_init_ptr            10029298
 0003:00017BD0       ___doserrno                1001ABD0
 0003:00017F80       ___faterr                  1001AF80
 0003:000144F0       ___fcloseall               100174F0
 0005:00007258       ___fhnd_info               10026258
 0003:000161F4       ___floatfmt                100191F4
 0003:00017E80       ___fp_lock                 1001AE80
 0003:00017F00       ___fp_unlock               1001AF00
 0003:00018F4C       ___fpclassify_ld           1001BF4C
 0005:00007438       ___init_environ_ptr        10026438
 0005:000075D4       ___init_mbctype_ptr        100265D4
 0003:00017BFC       ___initmbctype             1001ABFC
 0003:000185B8       ___internal_tzset          1001B5B8
 0003:00019067       ___itoa                    1001C067
 0005:000077D0       ___locale_chars            100267D0
 0005:000073A8       ___locale_codepage         100263A8
 0005:00007428       ___locale_decimal_const    10026428
 0005:0000742C       ___locale_decpoint         1002642C
 0005:000073AC       ___locale_ident            100263AC
 0005:000073A4       ___locale_mbsize           100263A4
 0003:0001834C       ___localstructtmtotime_t   1001B34C
 0005:00007794       ___mainzone                10026794
 0005:00007870       ___mb_cpinfo               10026870
 0005:00007910       ___mb_cpinfoN              10026910
 0005:000076E0       ___mbcodepage              100266E0
 0005:000076DC       ___mbcpinfo                100266DC
 0005:000076E4       ___mblcid                  100266E4
 0005:00009EB4       ___module_handle           10028EB4
 0005:00009EAC       ___pfloatfmt               10028EAC
 0005:00009EA8       ___pscanfloat              10028EA8
 0003:0001810C       ___rtl_clean_cppexceptions 1001B10C
 0003:000180F4       ___rtl_init_cppexceptions  1001B0F4
 0005:00007030       ___terminate_done          10026030
 0005:00009EBC       ___thdtbl                  10028EBC
 0003:00017B87       ___threadid                1001AB87
 0005:0000A2A0       ___time_milliseconds       100292A0
 0005:0000A29C       ___ve_debughook            1002929C
 0005:000063B1       ___wargv                   100253B1
 0003:00016D28       ___wfloatfmt               10019D28
 0005:00009EA4       ___wpfloatfmt              10028EA4
 0005:00009EA0       ___wpscanfloat             10028EA0
 0005:000077D4       ___write_fp                100267D4
 0003:00012244       __aaEqual                  10015244
 0003:000123C0       __aaGetHash                100153C0
 0003:00009AF8       __aaKeys                   1000CAF8
 0003:00012F04       __aaUnwrapTypeInfo         10015F04
 0005:000062D0       __acrtused_dll             100252D0
 0003:00017A0A       __addthreadtableentry      1001AA0A
 0003:0001A373       __alloca_probe             1001D373
 0003:00017924       __allocinit                1001A924
 0003:0001793F       __allocwrap                1001A93F
 0005:000063A9       __argc                     100253A9
 0005:000063AD       __argv                     100253AD
 0005:00006360       __atexit_max               10025360
 0005:00009D90       __atexit_tbl               10028D90
 0005:0000635C       __atexitp                  1002535C
 0003:00017940       __cexit                    1001A940
 0003:0001A370       __chkstack                 1001D370
 0003:0001A373       __chkstk                   1001D373
 0003:00014280       __cinit                    10017280
 0003:00019EA3       __clear87                  1001CEA3
 0003:000178F0       __clearbss                 1001A8F0
 0003:00019EAC       __control87                1001CEAC
 0005:0000648B       __cppeh_sv                 1002548B
 0005:00006364       __cpumode                  10025364
 0005:00007048       __ctype                    10026048
 0003:00002508       __d_arrayappendT           10005508
 0003:00008818       __d_arrayappendcTX         1000B818
 0003:000124B8       __d_arraybounds            100154B8
 0003:000099B4       __d_arraycatT              1000C9B4
 0003:000120E0       __d_arraycatnTX            100150E0
 0003:0000BCD4       __d_arrayliteralTX         1000ECD4
 0003:00011504       __d_arraysetlengthiT       10014504
 0003:000097EC       __d_createTrace            1000C7EC
 0003:00002E34       __d_dynamic_cast           10005E34
 0003:00001398       __d_framehandler           10004398
 0003:00002858       __d_global_unwind          10005858
 0003:00002D5C       __d_isbaseof               10005D5C
 0003:00009828       __d_isbaseof2              1000C828
 0003:000047C4       __d_localUnwindForGoto     100077C4
 0003:00002880       __d_local_unwind           10005880
 0003:00001D64       __d_local_unwind2          10004D64
 0005:000087C8       __d_main_args              100277C8
 0003:00009788       __d_monitor_create         1000C788
 0003:00013068       __d_monitor_destroy        10016068
 0003:000097D8       __d_monitor_lock           1000C7D8
 0003:00009774       __d_monitor_unlock         1000C774
 0003:00012BD8       __d_monitordelete          10015BD8
 0003:00002804       __d_monitorenter           10005804
 0003:000027D4       __d_monitorexit            100057D4
 0003:0000BE24       __d_newarrayT              1000EE24
 0003:0001041C       __d_newarrayU              1001341C
 0003:000019D8       __d_newclass               100049D8
 0003:000110F0       __d_switch_string          100140F0
 0003:000024F8       __d_throwc                 100054F8
 0003:0000FF60       __d_traceContext           10012F60
 0005:00007028       __default_heap             10026028
 0003:0001434C       __dodtors                  1001734C
 0003:0001829C       __dos_sethandlecount       1001B29C
 0005:0000644B       __doserrno                 1002544B
 0005:00008570       __edata                    10027570
 0005:0000A2B0       __end                      100292B0
 0005:00007430       __environ                  10026430
 0005:000063A1       __envptr                   100253A1
 0003:00017BC7       __errno                    1001ABC7
 0003:00017BB7       __errno_set                1001ABB7
 0000:00000000  Abs  __except_list              00000000
 0005:00006DE8       __fcloseallp               10025DE8
 0005:00006407       __fe_cur_env               10025407
 0003:00017E2A       __fgetc_nlock              1001AE2A
 0003:000193E0       __fillbuf                  1001C3E0
 0003:000130C0       __fltused                  100160C0
 0003:00019250       __flushbu                  1001C250
 0003:00019138       __flushterm                1001C138
 0003:00019ED3       __fpreset                  1001CED3
 0003:00017DA8       __fputc_nlock              1001ADA8
 0003:00017B4F       __getthreaddata            1001AB4F
 0005:00009F4C       __hdlSemHandles            10028F4C
 0005:00009EB8       __hookexitp                10028EB8
 0005:00009EC0       __iSemLockCtrs             10028EC0
 0005:0000A180       __iSemNestCount            10029180
 0005:0000A068       __iSemThreadIds            10029068
 0002:00000718       __imp__CloseHandle@4       10002718
 0002:00000668       __imp__CreateSemaphoreA@16 10002668
 0002:000006D8       __imp__DeleteCriticalSection@4 100026D8
 0002:0000064C       __imp__DeleteFileA@4       1000264C
 0002:000006F4       __imp__DuplicateHandle@28  100026F4
 0002:00000704       __imp__EnterCriticalSection@4 10002704
 0002:00000648       __imp__ExitProcess@4       10002648
 0002:00000630       __imp__GetACP@0            10002630
 0002:00000638       __imp__GetCPInfo@8         10002638
 0002:000006DC       __imp__GetConsoleWindow@0  100026DC
 0002:000006F8       __imp__GetCurrentProcess@0 100026F8
 0002:00000710       __imp__GetCurrentProcessId@0 10002710
 0002:000006FC       __imp__GetCurrentThread@0  100026FC
 0002:0000071C       __imp__GetCurrentThreadId@0 1000271C
 0002:000006A8       __imp__GetEnvironmentVariableA@12 100026A8
 0002:000006CC       __imp__GetExitCodeThread@8 100026CC
 0002:00000628       __imp__GetFileType@4       10002628
 0002:00000644       __imp__GetLastError@0      10002644
 0002:00000674       __imp__GetLocalTime@4      10002674
 0002:0000070C       __imp__GetModuleHandleA@4  1000270C
 0002:00000634       __imp__GetOEMCP@0          10002634
 0002:0000066C       __imp__GetProcessHeap@0    1000266C
 0002:00000654       __imp__GetStdHandle@4      10002654
 0002:00000658       __imp__GetStringTypeA@20   10002658
 0002:000006F0       __imp__GetSystemInfo@4     100026F0
 0002:0000069C       __imp__GetThreadContext@8  1000269C
 0002:00000660       __imp__GetTickCount@0      10002660
 0002:0000062C       __imp__GetTimeZoneInformation@4 1000262C
 0002:0000068C       __imp__GetVersion@0        1000268C
 0002:000006B4       __imp__GlobalMemoryStatus@4 100026B4
 0002:00000684       __imp__HeapAlloc@12        10002684
 0002:00000688       __imp__HeapFree@12         10002688
 0002:00000680       __imp__HeapReAlloc@16      10002680
 0002:000006B0       __imp__InitializeCriticalSection@4 100026B0
 0002:00000670       __imp__LCMapStringA@24     10002670
 0002:00000700       __imp__LeaveCriticalSection@4 10002700
 0002:00000724       __imp__MessageBoxA@16      10002724
 0002:000006E8       __imp__MultiByteToWideChar@24 100026E8
 0002:000006C8       __imp__QueryPerformanceCounter@4 100026C8
 0002:000006C4       __imp__QueryPerformanceFrequency@4 100026C4
 0002:00000664       __imp__ReleaseSemaphore@12 10002664
 0002:00000694       __imp__ResumeThread@4      10002694
 0002:00000640       __imp__SetFilePointer@16   10002640
 0002:00000650       __imp__SetHandleCount@4    10002650
 0002:000006A0       __imp__Sleep@4             100026A0
 0002:00000698       __imp__SuspendThread@4     10002698
 0002:000006EC       __imp__SwitchToThread@0    100026EC
 0002:00000690       __imp__TryEnterCriticalSection@4 10002690
 0002:000006B8       __imp__VirtualAlloc@16     100026B8
 0002:000006C0       __imp__VirtualFree@12      100026C0
 0002:000006BC       __imp__WaitForSingleObject@8 100026BC
 0002:0000065C       __imp__WideCharToMultiByte@32 1000265C
 0002:0000063C       __imp__WriteConsoleA@20    1000263C
 0005:00006668       __iob                      10025668
 0003:000185D0       __isctype                  1001B5D0
 0003:0001804C       __ismbcdigit               1001B04C
 0003:00018B20       __ismbcspace               1001BB20
 0005:000075D8       __mbctype                  100265D8
 0005:00007384       __mdays                    10026384
 0003:00007320       __minit                    1000A320
 0005:00008720       __moduleinfo_array         10027720
 0000:00000000  Abs  __nullext                  00000000
 0003:000132F0       __opti_stosd               100162F0
 0005:00007294       __osfhnd                   10026294
 0005:00006376       __osmode                   10025376
 0005:0000636E       __osver                    1002536E
 0005:00009EB0       __pRawDllMain              10028EB0
 0005:00007040       __pctype                   10026040
 0003:0001383C       __pformat                  1001683C
 0005:00006366       __pgmptr                   10025366
 0005:00007044       __pwctype                  10026044
 0003:00017AC1       __removethreadtableentry   1001AAC1
 0003:0001437C       __semerr                   1001737C
 0003:00018138       __setenvp                  1001B138
 0003:00019688       __setmbcp                  1001C688
 0003:0001524C       __sfmt                     1001824C
 0003:0001364C       __snprintf                 1001664C
 0003:00019E9E       __status87                 1001CE9E
 0005:0000A2A3       __szSemPrefix              100292A3
 0005:0000A064       __szSemPrefixLen           10029064
 0005:00006362       __tab_size                 10025362
 0005:000063BF       __thread1                  100253BF
 0003:000179F8       __thread_init              1001A9F8
 0000:0000002C  Abs  __tls_array                0000002C
 0005:000062EC       __tls_callbacks_a          100252EC
 0005:000062E8       __tls_index                100252E8
 0005:000062F0       __tls_used                 100252F0
 0004:00000060       __tlsend                   1001E060
 0004:00000000       __tlsstart                 1001E000
 0005:000063B1       __wargv                    100253B1
 0005:00007434       __wenviron                 10026434
 0005:000063A5       __wenvptr                  100253A5
 0003:00019540       __win32_faterr             1001C540
 0003:000194F0       __win32_stderrmsg          1001C4F0
 0005:00006373       __winmajor                 10025373
 0005:00006372       __winminor                 10025372
 0005:00006372       __winver                   10025372
 0005:0000636A       __wpgmptr                  1002536A
 0005:00000020       __xc_a                     1001F020
 0005:00000030       __xc_z                     1001F030
 0005:00000000       __xi_a                     1001F000
 0005:00000010       __xi_z                     1001F010
 0005:00000040       __xp_a                     1001F040
 0005:00000050       __xp_z                     1001F050
 0005:00000060       __xt_a                     1001F060
 0005:00000070       __xt_z                     1001F070
 0003:0001A390       _abs                       1001D390
 0005:0000778C       _altzone                   1002678C
 0003:0001A3B4       _atoi                      1001D3B4
 0003:0001A360       _atol                      1001D360
 0003:00013290       _calloc                    10016290
 0003:00018228       _close                     1001B228
 0003:00000050       _coolString@8              10003050
 0005:00007790       _daylight                  10026790
 0005:00008570       _edata                     10027570
 0005:0000A2B0       _end                       100292B0
 0005:000063CF       _errno                     100253CF
 0003:00017960       _exit                      1001A960
 0003:0001814C       _fclose                    1001B14C
 0003:000186A4       _fegetenv                  1001B6A4
 0003:00018700       _fesetenv                  1001B700
 0003:0001909C       _fflush                    1001C09C
 0003:00017E08       _fgetc                     1001AE08
 0003:00019ED8       _flushall                  1001CED8
 0003:0001355C       _fprintf                   1001655C
 0003:00017D80       _fputc                     1001AD80
 0003:0001325C       _free                      1001625C
 0003:0000BC14       _gc_addRange               1000EC14
 0003:0000BAD0       _gc_addRoot                1000EAD0
 0003:0000BA70       _gc_addrOf                 1000EA70
 0003:0000B8D8       _gc_calloc                 1000E8D8
 0003:0000BA9C       _gc_clrAttr                1000EA9C
 0003:0000BA2C       _gc_collect                1000EA2C
 0003:00001B14       _gc_disable                10004B14
 0003:00001AD4       _gc_enable                 10004AD4
 0003:0000BC50       _gc_extend                 1000EC50
 0003:0000B3D4       _gc_free                   1000E3D4
 0003:0000B958       _gc_getAttr                1000E958
 0003:0000733C       _gc_init                   1000A33C
 0003:000034C4       _gc_malloc                 100064C4
 0003:0000B918       _gc_minimize               1000E918
 0003:0000B7F8       _gc_qalloc                 1000E7F8
 0003:0000B400       _gc_query                  1000E400
 0003:0000B984       _gc_realloc                1000E984
 0003:0000B880       _gc_removeRange            1000E880
 0003:0000B36C       _gc_removeRoot             1000E36C
 0003:0000B8AC       _gc_reserve                1000E8AC
 0003:0000BAFC       _gc_runFinalizers          1000EAFC
 0003:0000BB50       _gc_setAttr                1000EB50
 0003:0000BBE8       _gc_sizeOf                 1000EBE8
 0003:0000206C       _gc_term                   1000506C
 0003:00015050       _getenv                    10018050
 0003:00019F18       _isatty                    1001CF18
 0003:000161CC       _isdigit                   100191CC
 0003:000161E0       _isspace                   100191E0
 0003:00019040       _itoa                      1001C040
 0003:0001A390       _labs                      1001D390
 0003:00007170       _lifetime_init             1000A170
 0003:0001A39A       _llabs                     1001D39A
 0003:000182C0       _lseek                     1001B2C0
 0003:00013278       _malloc                    10016278
 0003:00018BB4       _mbtowc                    1001BBB4
 0003:00014774       _memcmp                    10017774
 0003:000133D0       _memcpy                    100163D0
 0003:000187E0       _memicmp                   1001B7E0
 0003:000133D0       _memmove                   100163D0
 0003:00013324       _memset                    10016324
 0003:00012B88       _onFinalizeError           10015B88
 0003:00009BC4       _onInvalidMemoryOperationError 1000CBC4
 0003:00009BD4       _onOutOfMemoryError        1000CBD4
 0003:000146C4       _printf                    100176C4
 0003:0001A170       _read                      1001D170
 0003:000132AC       _realloc                   100162AC
 0003:0001827C       _remove                    1001B27C
 0003:00012CEC       _rt_args                   10015CEC
 0005:00005F20       _rt_cmdline_enabled        10024F20
 0005:0000A2A2       _rt_envvars_enabled        100292A2
 0003:00010618       _rt_finalize2              10013618
 0003:0000A8F0       _rt_finalizeFromGC         1000D8F0
 0003:0001125C       _rt_hasFinalizerInSegment  1001425C
 0003:000021B8       _rt_init                   100051B8
 0003:000071DC       _rt_moduleCtor             1000A1DC
 0003:00002024       _rt_moduleDtor             10005024
 0003:00000714       _rt_moduleTlsCtor          10003714
 0003:00000370       _rt_moduleTlsDtor          10003370
 0005:00005F10       _rt_options                10024F10
 0003:0000245C       _rt_setTraceHandler        1000545C
 0003:00000AF8       _rt_term                   10003AF8
 0005:000008C0       _rt_trapExceptions         1001F8C0
 0003:00002EA0       _searchCollisionExceptionHandler 10005EA0
 0003:00019168       _setvbuf                   1001C168
 0003:000135C8       _sprintf                   100165C8
 0003:00015228       _sscanf                    10018228
 0005:000015CC       _stdaux                    100205CC
 0005:000015C8       _stderr                    100205C8
 0005:000015C0       _stdin                     100205C0
 0005:000015C4       _stdout                    100205C4
 0005:000015D0       _stdprn                    100205D0
 0003:0001449C       _strchr                    1001749C
 0003:00014388       _strcmp                    10017388
 0003:00018870       _strcmpl                   1001B870
 0003:000143D8       _strcpy                    100173D8
 0003:00018834       _strdup                    1001B834
 0003:00018870       _stricmp                   1001B870
 0003:0001443C       _strlen                    1001743C
 0003:00018AC8       _strnicmp                  1001BAC8
 0003:000147E8       _strtold                   100177E8
 0003:0000211C       _thread_attachByAddr       1000511C
 0003:00006FC8       _thread_attachByAddrB      10009FC8
 0003:000005B0       _thread_attachThis         100035B0
 0003:00000760       _thread_detachByAddr       10003760
 0003:00000514       _thread_detachThis         10003514
 0003:0000BB84       _thread_init               1000EB84
 0003:00001F74       _thread_joinAll            10004F74
 0003:0000B020       _thread_resumeAll          1000E020
 0003:0000A680       _thread_scanAll            1000D680
 0003:00010504       _thread_scanAllType        10013504
 0003:0000AD10       _thread_suspendAll         1000DD10
 0003:00006F74       _thread_term               10009F74
 0003:000146D8       _time                      100176D8
 0005:00007788       _timezone                  10026788
 0003:00018E98       _tolower                   1001BE98
 0003:0001512C       _toupper                   1001812C
 0005:000077B0       _tzname                    100267B0
 0003:00019AA4       _tzset                     1001CAA4
 0003:00002E6C       _unwindCollisionExceptionHandler 10005E6C
 0003:00000010       _useArray@12               10003010
 0003:00013574       _vfprintf                  10016574
 0003:000182F0       _vprintf                   1001B2F0
 0003:00013668       _vsnprintf                 10016668
 0003:000135E0       _vsprintf                  100165E0
 0003:00019008       _wcscpy                    1001C008
 0003:000180E0       _wcslen                    1001B0E0
 0003:00017F88       _wctomb                    1001AF88
 0003:00019F40       _write                     1001CF40
 0005:000077CC       roundto0                   100267CC

  Address         Publics by Value              Rva+Base

 0000:00000000  Abs  __except_list              00000000
 0000:00000000  Abs  __nullext                  00000000
 0000:0000002C  Abs  __tls_array                0000002C
 0002:00000628       __imp__GetFileType@4       10002628
 0002:0000062C       __imp__GetTimeZoneInformation@4 1000262C
 0002:00000630       __imp__GetACP@0            10002630
 0002:00000634       __imp__GetOEMCP@0          10002634
 0002:00000638       __imp__GetCPInfo@8         10002638
 0002:0000063C       __imp__WriteConsoleA@20    1000263C
 0002:00000640       __imp__SetFilePointer@16   10002640
 0002:00000644       __imp__GetLastError@0      10002644
 0002:00000648       __imp__ExitProcess@4       10002648
 0002:0000064C       __imp__DeleteFileA@4       1000264C
 0002:00000650       __imp__SetHandleCount@4    10002650
 0002:00000654       __imp__GetStdHandle@4      10002654
 0002:00000658       __imp__GetStringTypeA@20   10002658
 0002:0000065C       __imp__WideCharToMultiByte@32 1000265C
 0002:00000660       __imp__GetTickCount@0      10002660
 0002:00000664       __imp__ReleaseSemaphore@12 10002664
 0002:00000668       __imp__CreateSemaphoreA@16 10002668
 0002:0000066C       __imp__GetProcessHeap@0    1000266C
 0002:00000670       __imp__LCMapStringA@24     10002670
 0002:00000674       __imp__GetLocalTime@4      10002674
 0002:00000680       __imp__HeapReAlloc@16      10002680
 0002:00000684       __imp__HeapAlloc@12        10002684
 0002:00000688       __imp__HeapFree@12         10002688
 0002:0000068C       __imp__GetVersion@0        1000268C
 0002:00000690       __imp__TryEnterCriticalSection@4 10002690
 0002:00000694       __imp__ResumeThread@4      10002694
 0002:00000698       __imp__SuspendThread@4     10002698
 0002:0000069C       __imp__GetThreadContext@8  1000269C
 0002:000006A0       __imp__Sleep@4             100026A0
 0002:000006A8       __imp__GetEnvironmentVariableA@12 100026A8
 0002:000006B0       __imp__InitializeCriticalSection@4 100026B0
 0002:000006B4       __imp__GlobalMemoryStatus@4 100026B4
 0002:000006B8       __imp__VirtualAlloc@16     100026B8
 0002:000006BC       __imp__WaitForSingleObject@8 100026BC
 0002:000006C0       __imp__VirtualFree@12      100026C0
 0002:000006C4       __imp__QueryPerformanceFrequency@4 100026C4
 0002:000006C8       __imp__QueryPerformanceCounter@4 100026C8
 0002:000006CC       __imp__GetExitCodeThread@8 100026CC
 0002:000006D8       __imp__DeleteCriticalSection@4 100026D8
 0002:000006DC       __imp__GetConsoleWindow@0  100026DC
 0002:000006E8       __imp__MultiByteToWideChar@24 100026E8
 0002:000006EC       __imp__SwitchToThread@0    100026EC
 0002:000006F0       __imp__GetSystemInfo@4     100026F0
 0002:000006F4       __imp__DuplicateHandle@28  100026F4
 0002:000006F8       __imp__GetCurrentProcess@0 100026F8
 0002:000006FC       __imp__GetCurrentThread@0  100026FC
 0002:00000700       __imp__LeaveCriticalSection@4 10002700
 0002:00000704       __imp__EnterCriticalSection@4 10002704
 0002:0000070C       __imp__GetModuleHandleA@4  1000270C
 0002:00000710       __imp__GetCurrentProcessId@0 10002710
 0002:00000718       __imp__CloseHandle@4       10002718
 0002:0000071C       __imp__GetCurrentThreadId@0 1000271C
 0002:00000724       __imp__MessageBoxA@16      10002724
 0003:00000010       _useArray@12               10003010
 0003:00000050       _coolString@8              10003050
 0003:00000124       _D8kpropdll7__arrayZ       10003124
 0003:0000013C       _DllMain@12                1000313C
 0003:0000018C       _D4core3sys7windows3dll17dll_thread_detachFbbZb 1000318C
 0003:00000218       _D4core3sys7windows3dll17dll_thread_attachFbbZb 10003218
 0003:000002A4       _D4core3sys7windows3dll18dll_process_detachFPvbZv 100032A4
 0003:000002C8       _D4core3sys7windows3dll18dll_process_detachFPvbZ14__funcliteral3FkPvZb 100032C8
 0003:00000300       _D4core3sys7windows3dll18dll_process_attachFPvbZb 10003300
 0003:00000330       _D4core3sys7windows3dll14_staticCtor230FZv 10003330
 0003:00000348       _D4core3sys7windows3dll14_staticDtor231FZv 10003348
 0003:00000360       __D4core3sys7windows3dll9__modctorFZv 10003360
 0003:00000368       __D4core3sys7windows3dll9__moddtorFZv 10003368
 0003:00000370       _rt_moduleTlsDtor          10003370
 0003:00000394       _D2rt5minfo16rt_moduleTlsDtorUZ14__foreachbody1MFKS2rt14sections_win3212SectionGroupZi 10003394
 0003:000003AC       _D4core3sys7windows9threadaux17GetTlsDataAddressFNbPvZPv 100033AC
 0003:0000041C       _D4core6thread17thread_findByAddrFkZC4core6thread6Thread 1000341C
 0003:000004F0       _D4core6thread17thread_findByAddrFkZ14__foreachbody2MFNaNbNiNfKC4core6thread6ThreadZi 100034F0
 0003:00000514       _thread_detachThis         10003514
 0003:000005B0       _thread_attachThis         100035B0
 0003:00000714       _rt_moduleTlsCtor          10003714
 0003:00000738       _D2rt5minfo16rt_moduleTlsCtorUZ14__foreachbody1MFKS2rt14sections_win3212SectionGroupZi 10003738
 0003:00000750       _D4core3sys7windows9threadaux20thread_moduleTlsDtorFkZv 10003750
 0003:00000760       _thread_detachByAddr       10003760
 0003:000007F0       _D4core3sys7windows9threadaux10thread_aux6getTEBFNbkZPPv 100037F0
 0003:00000850       _D4core3sys7windows9threadaux10thread_aux6getTEBFNbZPPv 10003850
 0003:00000858       _D4core3sys7windows9threadaux10thread_aux18enumProcessThreadsFkPFkPvZbPvZb 10003858
 0003:000009FC       _D4core3sys7windows9threadaux10thread_aux18impersonate_threadFkPUZvZv 100039FC
 0003:00000A20       _D4core3sys7windows9threadaux10thread_aux18impersonate_threadFkPUZvZ9__lambda3MFZv 10003A20
 0003:00000A28       _D4core3sys7windows9threadaux10thread_aux18impersonate_threadFkMDFZvZv 10003A28
 0003:00000AF8       _rt_term                   10003AF8
 0003:00000BF8       _D4core3sys7windows3dll18dll_process_attachFPvbPvPvPvPiZb 10003BF8
 0003:00000C48       _D4core3sys7windows3dll18dll_process_attachFPvbPvPvPvPiZ14__funcliteral7FkPvZb 10003C48
 0003:00000C84       _D4core7runtime13_staticCtor86FZv 10003C84
 0003:00000C98       __D4core7runtime9__modctorFZv 10003C98
 0003:00000CA0       _D2rt5minfo11ModuleGroup6__ctorMFNcAyPS6object10ModuleInfoZS2rt5minfo11ModuleGroup 10003CA0
 0003:00000CB4       _D2rt5minfo11ModuleGroup9sortCtorsMFZv 10003CB4
 0003:00000DCC       _D2rt5minfo11ModuleGroup9sortCtorsMFZ10findModuleMFxPS6object10ModuleInfoZi 10003DCC
 0003:00000E18       _D2rt5minfo11ModuleGroup9sortCtorsMFZ4sortMFKAPyS6object10ModuleInfokZv 10003E18
 0003:00001228       _D2rt5minfo11ModuleGroup8runCtorsMFZv 10004228
 0003:00001244       _D2rt5minfo11ModuleGroup11runTlsCtorsMFZv 10004244
 0003:00001254       _D2rt5minfo11ModuleGroup11runTlsDtorsMFZv 10004254
 0003:00001264       _D2rt5minfo11ModuleGroup8runDtorsMFZv 10004264
 0003:00001274       _D2rt5minfo11ModuleGroup4freeMFZv 10004274
 0003:000012C0       _D2rt14sections_win3212SectionGroup11moduleGroupMNgFNcNdZNgS2rt5minfo11ModuleGroup 100042C0
 0003:000012C4       _D2rt14sections_win3212SectionGroup8gcRangesMNgFNdZANgAv 100042C4
 0003:000012D4       _D4core6thread6Thread7opApplyFMDFKC4core6thread6ThreadZiZi 100042D4
 0003:00001398       __d_framehandler           10004398
 0003:000016E0       _D4core6thread6Thread19_sharedStaticCtor90FZv 100046E0
 0003:00001700       _D4core6thread19_sharedStaticDtor95FZv 10004700
 0003:000017AC       _D4core6thread20_sharedStaticCtor105FZv 100047AC
 0003:000017D8       __D4core6thread15__modsharedctorFZv 100047D8
 0003:000017E8       __D4core6thread15__modshareddtorFZv 100047E8
 0003:000017F0       _D4core6thread14getStackBottomFNbZPv 100047F0
 0003:000017F8       _D4core6thread6Thread6__ctorMFkZC4core6thread6Thread 100047F8
 0003:00001818       _D4core6thread6Thread3addFNbPS4core6thread6Thread7ContextZv 10004818
 0003:000018F4       _D4core6thread6Thread3addFNbC4core6thread6ThreadZv 100048F4
 0003:000019D8       __d_newclass               100049D8
 0003:00001A58       _D2rt5tlsgc4initFZPv       10004A58
 0003:00001AD4       _gc_enable                 10004AD4
 0003:00001B14       _gc_disable                10004B14
 0003:00001B54       _D4core6atomic28__T8atomicOpVAyaa2_2d3dTkTiZ8atomicOpFNaNbNiKOkiZk 10004B54
 0003:00001B84       _D2rt6dmain214printThrowableFC6object9ThrowableZv 10004B84
 0003:00001C80       _D2rt6dmain214printThrowableFC6object9ThrowableZ5WSink4sinkMFNbxAaZv 10004C80
 0003:00001D1C       _D2rt6dmain214printThrowableFC6object9ThrowableZ4sinkMFNbxAaZv 10004D1C
 0003:00001D40       __STD_monitor_staticdtor   10004D40
 0003:00001D64       __d_local_unwind2          10004D64
 0003:00001D6C       _D6object9Throwable6__ctorMFNaNbNfAyaC6object9ThrowableZC6object9Throwable 10004D6C
 0003:00001D88       _D6object9Throwable6__ctorMFNaNbNfAyaAyakC6object9ThrowableZC6object9Throwable 10004D88
 0003:00001DC0       _D6object9Throwable8toStringMFZAya 10004DC0
 0003:00001DFC       _D6object9Throwable8toStringMFZ18__T9__lambda1TxAaZ9__lambda1MFNaNbNfxAaZv 10004DFC
 0003:00001E1C       _D6object9Throwable8toStringMxFMDFxAaZvZv 10004E1C
 0003:00001F34       _D6object9Throwable8toStringMxFMDFxAaZvZ14__foreachbody2MFKxAaZi 10004F34
 0003:00001F74       _thread_joinAll            10004F74
 0003:00001FD8       _D4core6thread14thread_joinAllUZ14__foreachbody1MFKC4core6thread6ThreadZi 10004FD8
 0003:00002024       _rt_moduleDtor             10005024
 0003:00002048       _D2rt5minfo13rt_moduleDtorUZ14__foreachbody1MFKS2rt14sections_win3212SectionGroupZi 10005048
 0003:0000206C       _gc_term                   1000506C
 0003:000020CC       __STD_critical_term        100050CC
 0003:0000210C       _D4core3sys7windows9threadaux20thread_moduleTlsCtorFkZv 1000510C
 0003:0000211C       _thread_attachByAddr       1000511C
 0003:0000218C       _D4core3sys7windows9threadaux17GetTlsDataAddressFNbkZPv 1000518C
 0003:000021B8       _rt_init                   100051B8
 0003:000022F0       _D4core3sys7windows3dll10dll_fixTLSFNbPvPvPvPvPiZb 100052F0
 0003:00002414       _D4core3sys7windows3dll10dll_fixTLSFNbPvPvPvPvPiZ14__funcliteral6FNbkPvZb 10005414
 0003:00002438       _D4core7runtime19defaultTraceHandlerFPvZC6object9Throwable9TraceInfo 10005438
 0003:0000245C       _rt_setTraceHandler        1000545C
 0003:00002468       _D4core3sys7windows10stacktrace20_sharedStaticCtor233FZv 10005468
 0003:000024F0       __D4core3sys7windows10stacktrace15__modsharedctorFZv 100054F0
 0003:000024F8       __d_throwc                 100054F8
 0003:00002508       __d_arrayappendT           10005508
 0003:0000259C       _D2rt8typeinfo5ti_Ag12TypeInfo_Aya8toStringMxFNaNbNfZAya 1000559C
 0003:000025AC       _D2rt8typeinfo5ti_Ag12TypeInfo_Aya4nextMNgFNaNbNdNiZNgC8TypeInfo 100055AC
 0003:000025B4       _D6object9Exception6__ctorMFNaNbNfAyaAyakC6object9ThrowableZC9Exception 100055B4
 0003:000025DC       _D6object10ModuleInfo6addrOfMxFNaNbiZPv 100055DC
 0003:000026D8       _D6object10ModuleInfo15importedModulesMxFNaNbNdZAyPS6object10ModuleInfo 100056D8
 0003:00002708       _D6object10ModuleInfo4nameMxFNaNbNdZAya 10005708
 0003:00002728       _D2rt5minfo71__T14runModuleFuncsS482rt5minfo11ModuleGroup11runTlsCtorsMFZ9__lambda1Z14runModuleFuncsMFAxPyS6object10ModuleInfoZv 10005728
 0003:0000277C       _D2rt5minfo74__T17runModuleFuncsRevS48Äâ§11ÄÜúGroup11ÄÉ¨TlsDtorsMFZ9__lambda1ZÄì«MFAxPyS6object10ÄÜûIÄÉ’Zv 1000577C
 0003:000027D4       __d_monitorexit            100057D4
 0003:00002804       __d_monitorenter           10005804
 0003:00002858       __d_global_unwind          10005858
 0003:00002880       __d_local_unwind           10005880
 0003:00002914       _D2rt9deh_win3230_d_translate_se_to_d_exceptionFPS2rt9deh_win3216EXCEPTION_RECORDPS2rt9deh_win327CONTEXTZC6object9Throwable 10005914
 0003:00002D34       _D2rt9deh_win3224skipCollateralExceptionsFPS2rt9deh_win3216EXCEPTION_RECORDZPS2rt9deh_win3216EXCEPTION_RECORD 10005D34
 0003:00002D5C       __d_isbaseof               10005D5C
 0003:00002DE8       _D6object5Error6__ctorMFNaNbNfAyaC6object9ThrowableZC6object5Error 10005DE8
 0003:00002E08       _D6object5Error6__ctorMFNaNbNfAyaAyakC6object9ThrowableZC6object5Error 10005E08
 0003:00002E34       __d_dynamic_cast           10005E34
 0003:00002E6C       _unwindCollisionExceptionHandler 10005E6C
 0003:00002EA0       _searchCollisionExceptionHandler 10005EA0
 0003:00002ED4       _D4core6thread6Thread9isRunningMFNbNdZb 10005ED4
 0003:00002F0C       _D6object6Object8toStringMFZAya 10005F0C
 0003:00002F1C       _D6object6Object6toHashMFNbNeZk 10005F1C
 0003:00002F20       _D6object6Object5opCmpMFC6ObjectZi 10005F20
 0003:00002F8C       _D6object6Object8opEqualsMFC6ObjectZb 10005F8C
 0003:00002F9C       _D4core6thread6Thread6__dtorMFZv 10005F9C
 0003:00002FD0       _D4core4time8MonoTime20_sharedStaticCtor166FNeZv 10005FD0
 0003:0000300C       _D4core4time12TickDuration20_sharedStaticCtor173FNeZv 1000600C
 0003:00003098       __D4core4time15__modsharedctorFZv 10006098
 0003:000030A8       _D4core6thread15ThreadException6__ctorMFNaNbNfAyaAyakC6object9ThrowableZC4core6thread15ThreadException 100060A8
 0003:000030D0       _D4core6thread11ThreadGroup7opApplyMFMDFKC4core6thread6ThreadZiZi 100060D0
 0003:000031AC       _D4core6thread11ThreadGroup7joinAllMFbZv 100061AC
 0003:00003278       _D6object14TypeInfo_Class8toStringMxFNaNbNfZAya 10006278
 0003:00003288       _D6object14TypeInfo_Class8opEqualsMFC6ObjectZb 10006288
 0003:0000332C       _D6object14TypeInfo_Class7getHashMxFNbNexPvZk 1000632C
 0003:0000334C       _D6object14TypeInfo_Class6equalsMxFxPvxPvZb 1000634C
 0003:00003384       _D6object14TypeInfo_Class7compareMxFxPvxPvZi 10006384
 0003:000033D0       _D6object14TypeInfo_Class5tsizeMxFNaNbNdNiNfZk 100063D0
 0003:000033D8       _D6object14TypeInfo_Class5flagsMxFNaNbNdNiNfZk 100063D8
 0003:000033E0       _D6object14TypeInfo_Class5offTiMxFNaNbNdZAxS6object14OffsetTypeInfo 100063E0
 0003:000033EC       _D6object14TypeInfo_Class4infoMxFNaNbNdNfZxC14TypeInfo_Class 100063EC
 0003:000033F0       _D6object14TypeInfo_Class8typeinfoMxFNaNbNdNfZxC14TypeInfo_Class 100063F0
 0003:000033F4       _D6object14TypeInfo_Class6rtInfoMxFNaNbNdNiNfZPyv 100063F4
 0003:000033FC       _D6object14TypeInfo_Class6createMxFZC6Object 100063FC
 0003:0000344C       _D4core6thread5Fiber6__dtorMFNbZv 1000644C
 0003:000034B8       _D4core6thread5Fiber6__ctorMFNbZC4core6thread5Fiber 100064B8
 0003:000034C4       _gc_malloc                 100064C4
 0003:00003504       _D2rt8lifetime14_staticDtor352FZv 10006504
 0003:00003548       __D2rt8lifetime9__moddtorFZv 10006548
 0003:00003550       _D4core9exception16OutOfMemoryError8toStringMxFNeZAya 10006550
 0003:0000356C       _D2gc2gc2GC7getAttrMFNbPvZk 1000656C
 0003:000035BC       _D2gc2gc2GC7getAttrMFNbPvZ2goMFNbZk 100065BC
 0003:00003650       _D2gc2gc2GC7setAttrMFNbPvkZk 10006650
 0003:000036A0       _D2gc2gc2GC7setAttrMFNbPvkZ2goMFNbZk 100066A0
 0003:0000380C       _D2gc2gc2GC7clrAttrMFNbPvkZk 1000680C
 0003:0000385C       _D2gc2gc2GC7clrAttrMFNbPvkZ2goMFNbZk 1000685C
 0003:00003984       _D2gc2gc2GC6mallocMFNbkkPkxC8TypeInfoZPv 10006984
 0003:00003A64       _D2gc2gc2GC6callocMFNbkkPkxC8TypeInfoZPv 10006A64
 0003:00003B4C       _D2gc2gc2GC13reallocNoSyncMFNbPvkKkKkxC8TypeInfoZPv 10006B4C
 0003:00004118       _D2gc2gc2GC12extendNoSyncMFNbPvkkxC8TypeInfoZk 10007118
 0003:0000422C       _D2gc2gc2GC7reserveMFNbkZk 1000722C
 0003:00004298       _D2gc2gc2GC4freeMFNbPvZv   10007298
 0003:000042D8       _D2gc2gc2GC10freeNoSyncMFNbPvZv 100072D8
 0003:000043E4       _D2gc2gc2GC6addrOfMFNbPvZPv 100073E4
 0003:00004438       _D2gc2gc2GC12addrOfNoSyncMFNbPvZPv 10007438
 0003:00004458       _D2gc2gc2GC6sizeOfMFNbPvZk 10007458
 0003:000044AC       _D2gc2gc2GC12sizeOfNoSyncMFNbPvZk 100074AC
 0003:000044E0       _D2gc2gc2GC5queryMFNbPvZS4core6memory8BlkInfo_ 100074E0
 0003:00004564       _D2gc2gc2GC7addRootMFNbPvZv 10007564
 0003:000045BC       _D2gc2gc2GC10removeRootMFNbPvZv 100075BC
 0003:000045FC       _D2gc2gc2GC8addRangeMFNbPvkxC8TypeInfoZv 100075FC
 0003:0000467C       _D2gc2gc2GC11removeRangeMFNbPvZv 1000767C
 0003:000046E0       _D4core6atomic19__T7casImplTkTxkTkZ7casImplFNaNbNiPOkxkkZb 100076E0
 0003:000046FC       _D4core6atomic47__T10atomicLoadVE4core6atomic11MemoryOrderi0TkZ10atomicLoadFNaNbNiKOxkZk 100076FC
 0003:0000470C       _D2rt6dmain215formatThrowableFC6object9ThrowableDFNbxAaZvZv 1000770C
 0003:000047C4       __d_localUnwindForGoto     100077C4
 0003:000047E4       _D2rt4util6string34__T21_unsignedToTempStringTkVki10Z21_unsignedToTempStringFNaNbNiNexkKG10aZAa 100077E4
 0003:0000483C       _D4core6thread6Thread8isDaemonMFNdZb 1000783C
 0003:000048D0       _D4core6thread6Thread6removeFNbC4core6thread6ThreadZv 100078D0
 0003:00004954       _D4core6thread6Thread4joinMFbZC6object9Throwable 10007954
 0003:000049D8       _D2rt5minfo70__T17runModuleFuncsRevS44Äâ§11ÄÜúGroup8ÄÉ´DtorsMFZ9__lambda1ZÄì√MFAxPyS6object10ÄÜûIÄÉ—Zv 100079D8
 0003:00004A30       _D2gc2gc3Gcx4DtorMFZv      10007A30
 0003:00004E5C       _D2gc2gc3Gcx13runFinalizersMFNbxAvZv 10007E5C
 0003:00004EBC       _D2gc2gc3Gcx8findBaseMFNbPvZPv 10007EBC
 0003:00004F3C       _D2gc2gc3Gcx8findSizeMFNbPvZk 10007F3C
 0003:00004FA0       _D2gc2gc3Gcx7getInfoMFNbPvZS4core6memory8BlkInfo_ 10007FA0
 0003:00005020       _D2gc2gc3Gcx7findBinFNbkZh 10008020
 0003:0000503C       _D2gc2gc3Gcx7reserveMFNbkZk 1000803C
 0003:00005074       _D2gc2gc3Gcx23updateCollectThresholdsMFNbZv 10008074
 0003:00005120       _D2gc2gc3Gcx8minimizeMFNbZv 10008120
 0003:000052A0       _D2gc2gc3Gcx10smallAllocMFNbhKkkZPv 100082A0
 0003:0000554C       _D2gc2gc3Gcx10smallAllocMFNbhKkkZ8tryAllocMFNbZb 1000854C
 0003:000055BC       _D2gc2gc3Gcx8bigAllocMFNbkKkkxC8TypeInfoZPv 100085BC
 0003:00005800       _D2gc2gc3Gcx8bigAllocMFNbkKkkxC8TypeInfoZ8tryAllocMFNbZb 10008800
 0003:00005868       _D2gc2gc3Gcx8bigAllocMFNbkKkkxC8TypeInfoZ15tryAllocNewPoolMFNbZb 10008868
 0003:00005898       _D2gc2gc3Gcx7newPoolMFNbkbZPS2gc2gc4Pool 10008898
 0003:00005B78       _D2gc2gc3Gcx9allocPageMFNbhZPS2gc2gc4List 10008B78
 0003:00005BC0       _D2gc2gc3Gcx4markMFNbPvPvZv 10008BC0
 0003:00006164       _D2gc2gc3Gcx7prepareMFNbZv 10009164
 0003:0000624C       _D2gc2gc3Gcx7markAllMFNbbZv 1000924C
 0003:00006298       _D2gc2gc3Gcx7markAllMFNbbZ14__foreachbody2MFNbKS2gc2gc4RootZi 10009298
 0003:000062C4       _D2gc2gc3Gcx7markAllMFNbbZ14__foreachbody3MFNbKS2gc2gc5RangeZi 100092C4
 0003:000062F4       _D2gc2gc3Gcx5sweepMFNbZk   100092F4
 0003:00006614       _D2gc2gc3Gcx7recoverMFNbZk 10009614
 0003:000067CC       _D2gc2gc3Gcx11fullcollectMFNbbZk 100097CC
 0003:00006ED0       _D2gc2gc3Gcx8isMarkedMFNbPvZi 10009ED0
 0003:00006F74       _thread_term               10009F74
 0003:00006FC8       _thread_attachByAddrB      10009FC8
 0003:00007154       _D4core6thread20thread_attachByAddrBUkPvZ9__lambda3MFZv 1000A154
 0003:00007170       _lifetime_init             1000A170
 0003:000071DC       _rt_moduleCtor             1000A1DC
 0003:00007200       _D2rt5minfo13rt_moduleCtorUZ14__foreachbody1MFKS2rt14sections_win3212SectionGroupZi 1000A200
 0003:00007224       _D4core6atomic28__T8atomicOpVAyaa2_2b3dTkTiZ8atomicOpFNaNbNiKOkiZk 1000A224
 0003:00007254       __STI_monitor_staticctor   1000A254
 0003:00007278       __STI_critical_init        1000A278
 0003:000072A4       _D2rt6memory16initStaticDataGCFZv 1000A2A4
 0003:000072C8       _D2rt6memory16initStaticDataGCFZ14__foreachbody1MFKS2rt14sections_win3212SectionGroupZi 1000A2C8
 0003:00007320       __minit                    1000A320
 0003:0000733C       _gc_init                   1000A33C
 0003:0000757C       _D4core3sys7windows3dll7dll_aux16findCodeSequenceFNbPviKAhZPv 1000A57C
 0003:000075F8       _D4core3sys7windows3dll7dll_aux17findCodeReferenceFNbPviKAhbZPv 1000A5F8
 0003:00007648       _D4core3sys7windows3dll7dll_aux15addTlsListEntryFNbPPvPvPvPvPiZPS4core3sys7windows3dll7dll_aux16LdrpTlsListEntry 1000A648
 0003:00007804       _D4core3sys7windows3dll7dll_aux10addTlsDataFNbPPvPvPviZb 1000A804
 0003:000078F0       _D4core3sys7windows3dll7dll_aux13findLdrModuleFNbPvPPvZPS4core3sys7windows3dll7dll_aux10LDR_MODULE 1000A8F0
 0003:00007938       _D4core3sys7windows10stacktr·e10SÄÑåTÄÑå6__ctorMFkPSÄëµˇ7CONTEXTZCÄ©ÿ 1000A938
 0003:00007974       _D4core3sys7windows10stacktrace10StackTrace7opApplyMxFMDFKxAaZiZi 1000A974
 0003:00007994       _D4core3sys7windows10stacktrace10StackTrace7opApplyMxFMDFKxAaZiZ16__T9__lambda2TkZ9__lambda2MFKkKxAaZi 1000A994
 0003:000079A8       _D4core3sys7windows10stacktrace10StackTrace7opApplyMxFMDFKkKxAaZiZi 1000A9A8
 0003:00007A0C       _D4core3sys7windows10stacktrace10StackTrace8toStringMxFZAya 1000AA0C
 0003:00007A48       _D4core3sys7windows10stacktrace10StackTrace8toStringMxFZ14__foreachbody1MFNaNbNfKxAaZi 1000AA48
 0003:00007A90       _D4core3sys7windows10stacktrace10StackTrace5traceFkPS4core3sys7windows7windows7CONTEXTZAm 1000AA90
 0003:00007B38       _D4core3sys7windows10stacktrace10StackTrace7resolveFAxmZAAa 1000AB38
 0003:00007BDC       _D4core3sys7windows10stacktrace10StackTrace11traceNoSyncFkPS4core3sys7windows7windows7CONTEXTZAm 1000ABDC
 0003:00007EA4       _D4core3sys7windows10stacktrace10StackTrace13resolveNoSyncFAxmZAAa 1000AEA4
 0003:00008350       _D6object7__arrayZ         1000B350
 0003:00008364       _D4core3sys7windows10stacktrace18generateSearchPathFZAya 1000B364
 0003:00008440       _FixupDebugHeader@24       1000B440
 0003:00008580       _D4core3sys7windows7dbghelp7DbgHelp3getFZPS4core3sys7windows7dbghelp7DbgHelp 1000B580
 0003:00008708       _D4core3sys7windows7dbghelp7DbgHelp20_sharedStaticDtor229FZv 1000B708
 0003:00008720       __D4core3sys7windows7dbghelp15__modshareddtorFZv 1000B720
 0003:00008728       _D2rt9deh_win329throwImplFC6ObjectZv 1000B728
 0003:0000874C       _D2rt8lifetime12__doPostblitFPvkxC8TypeInfoZv 1000B74C
 0003:000087E0       _D2rt8lifetime9unqualifyFNaNbNiNgC8TypeInfoZNgC8TypeInfo 1000B7E0
 0003:00008818       __d_arrayappendcTX         1000B818
 0003:00009128       _D6object8TypeInfo8toStringMxFNaNbNfZAya 1000C128
 0003:00009138       _D6object8TypeInfo6toHashMxFNbNeZk 1000C138
 0003:000091B0       _D6object8TypeInfo5opCmpMFC6ObjectZi 1000C1B0
 0003:0000920C       _D6object8TypeInfo8opEqualsMFC6ObjectZb 1000C20C
 0003:000092A4       _D6object8TypeInfo7getHashMxFNbNexPvZk 1000C2A4
 0003:000092B0       _D6object8TypeInfo6equalsMxFxPvxPvZb 1000C2B0
 0003:000092C4       _D6object8TypeInfo7compareMxFxPvxPvZi 1000C2C4
 0003:000092DC       _D6object8TypeInfo5tsizeMxFNaNbNdNiNfZk 1000C2DC
 0003:000092E4       _D6object8TypeInfo4swapMxFPvPvZv 1000C2E4
 0003:00009318       _D6object8TypeInfo4nextMNgFNaNbNdNiZNgC8TypeInfo 1000C318
 0003:00009320       _D6object8TypeInfo4initMxFNaNbNiNfZAxv 1000C320
 0003:00009328       _D6object8TypeInfo5flagsMxFNaNbNdNiNfZk 1000C328
 0003:00009330       _D6object8TypeInfo5offTiMxFZAxS6object14OffsetTypeInfo 1000C330
 0003:00009338       _D6object8TypeInfo7destroyMxFPvZv 1000C338
 0003:00009340       _D6object8TypeInfo8postblitMxFPvZv 1000C340
 0003:00009348       _D6object8TypeInfo6talignMxFNaNbNdNiNfZk 1000C348
 0003:00009350       _D6object8TypeInfo6rtInfoMxFNaNbNdNiNfZPyv 1000C350
 0003:00009358       _D2rt8typeinfo5ti_Ag11TypeInfo_Aa8toStringMxFNaNbNfZAya 1000C358
 0003:00009368       _D2rt8typeinfo5ti_Ag11TypeInfo_Aa7getHashMxFNbNexPvZk 1000C368
 0003:000093B0       _D2rt8typeinfo5ti_Ag11TypeInfo_Aa4nextMNgFNaNbNdNiZNgC8TypeInfo 1000C3B0
 0003:000093B8       _D2rt8typeinfo5ti_Ag11TypeInfo_Ag8opEqualsMFC6ObjectZb 1000C3B8
 0003:000093C8       _D2rt8typeinfo5ti_Ag11TypeInfo_Ag8toStringMxFNaNbNfZAya 1000C3C8
 0003:000093D8       _D2rt8typeinfo5ti_Ag11TypeInfo_Ag7getHashMxFNbNexPvZk 1000C3D8
 0003:00009404       _D2rt8typeinfo5ti_Ag11TypeInfo_Ag6equalsMxFxPvxPvZb 1000C404
 0003:00009460       _D2rt8typeinfo5ti_Ag11TypeInfo_Ag7compareMxFxPvxPvZi 1000C460
 0003:000094F8       _D2rt8typeinfo5ti_Ag11TypeInfo_Ag4nextMNgFNaNbNdNiZNgC8TypeInfo 1000C4F8
 0003:00009500       _D6object14TypeInfo_Array8toStringMxFNaNbNfZAya 1000C500
 0003:00009528       _D6object14TypeInfo_Array8opEqualsMFC6ObjectZb 1000C528
 0003:00009590       _D6object14TypeInfo_Array7getHashMxFNbNexPvZk 1000C590
 0003:000095BC       _D6object14TypeInfo_Array6equalsMxFxPvxPvZb 1000C5BC
 0003:0000964C       _D6object14TypeInfo_Array7compareMxFxPvxPvZi 1000C64C
 0003:000096E4       _D6object14TypeInfo_Array5tsizeMxFNaNbNdNiNfZk 1000C6E4
 0003:000096EC       _D6object14TypeInfo_Array4swapMxFPvPvZv 1000C6EC
 0003:00009728       _D6object14TypeInfo_Array4nextMNgFNaNbNdNiZNgC8TypeInfo 1000C728
 0003:00009730       _D6object14TypeInfo_Array5flagsMxFNaNbNdNiNfZk 1000C730
 0003:00009738       _D6object14TypeInfo_Array6talignMxFNaNbNdNiNfZk 1000C738
 0003:00009740       _D2rt8typeinfo5ti_Ag11TypeInfo_Ah8toStringMxFNaNbNfZAya 1000C740
 0003:00009750       _D2rt8typeinfo5ti_Ag11TypeInfo_Ah7compareMxFxPvxPvZi 1000C750
 0003:0000976C       _D2rt8typeinfo5ti_Ag11TypeInfo_Ah4nextMNgFNaNbNdNiZNgC8TypeInfo 1000C76C
 0003:00009774       __d_monitor_unlock         1000C774
 0003:00009788       __d_monitor_create         1000C788
 0003:000097D8       __d_monitor_lock           1000C7D8
 0003:000097EC       __d_createTrace            1000C7EC
 0003:00009828       __d_isbaseof2              1000C828
 0003:00009924       _D4core5cpuid19_sharedStaticCtor65FNbNiNeZv 1000C924
 0003:000099AC       __D4core5cpuid15__modsharedctorFZv 1000C9AC
 0003:000099B4       __d_arraycatT              1000C9B4
 0003:00009AB0       _D2rt5tlsgc7destroyFPvZv   1000CAB0
 0003:00009ABC       _D4core4time12TickDuration6__ctorMFNaNbNcNiNflZS4core4time12TickDuration 1000CABC
 0003:00009AD0       _D4core4time13TimeException6__ctorMFNaNbNfAyaAyakC6object9ThrowableZC4core4time13TimeException 1000CAD0
 0003:00009AF8       __aaKeys                   1000CAF8
 0003:00009BC4       _onInvalidMemoryOperationError 1000CBC4
 0003:00009BD4       _onOutOfMemoryError        1000CBD4
 0003:00009BE4       _D4core6atomic50__T11atomicStoreVE4core6atomic11MemoryOrderi0TkTkZ11atomicStoreFNaNbNiKOkkZv 1000CBE4
 0003:00009BF8       _D2gc9pooltable27__T9PoolTableTS2gc2gc4PoolZ9PoolTable6insertMFNbNiPS2gc2gc4PoolZb 1000CBF8
 0003:00009CA4       _D2gc9pooltable27__T9PoolTableTS2gc2gc4PoolZ9PoolTable8findPoolMFNaNbNiPvZPS2gc2gc4Pool 1000CCA4
 0003:00009D04       _D2gc9pooltable27__T9PoolTableTS2gc2gc4PoolZ9PoolTable8minimizeMFNaNbZAPS2gc2gc4Pool 1000CD04
 0003:00009D94       _D2gc2gc15SmallObjectPool7getInfoMFNbPvZS4core6memory8BlkInfo_ 1000CD94
 0003:00009E58       _D2gc2gc15SmallObjectPool13runFinalizersMFNbxAvZv 1000CE58
 0003:00009FE4       _D2gc2gc15SmallObjectPool9allocPageMFNbhZPS2gc2gc4List 1000CFE4
 0003:0000A068       _D2gc2gc15LargeObjectPool13updateOffsetsMFNbkZv 1000D068
 0003:0000A0B0       _D2gc2gc15LargeObjectPool10allocPagesMFNbkZk 1000D0B0
 0003:0000A1A4       _D2gc2gc15LargeObjectPool9freePagesMFNbkkZv 1000D1A4
 0003:0000A1F0       _D2gc2gc15LargeObjectPool7getInfoMFNbPvZS4core6memory8BlkInfo_ 1000D1F0
 0003:0000A2B0       _D2gc2gc15LargeObjectPool13runFinalizersMFNbxAvZv 1000D2B0
 0003:0000A430       _D2rt4util9container5treap24__T5TreapTS2gc2gc5RangeZ5Treap7opApplyMFNbMDFNbKS2gc2gc5RangeZiZi 1000D430
 0003:0000A44C       _D2rt4util9container5treap24__T5TreapTS2gc2gc5RangeZ5Treap7opApplyMFNbMDFNbKS2gc2gc5RangeZiZ9__lambda2MFNbKxS2gc2gc5RangeZi 1000D44C
 0003:0000A460       _D2rt4util9container5treap24__T5TÄÑãTS2gc“5RangeZÄÜï6insertMFNbPSÄ∏≈4NodeÄéôÄøÕ 1000D460
 0003:0000A564       _D2rt4util9container5treap24__T5TÄÑãTS2gc“5RangeZÄÜï6·moveFNbNiPPSÄ∏«4NodeÄéôv 1000D564
 0003:0000A604       _D2rt4util9container5treap24__T5TÄÑãTS2gc“5RangeZÄÜï9·moveAllFNbNiPSÄ∏…4NodeZv 1000D604
 0003:0000A630       _D2rt4util9container5treap24__T5TÄÑãTS2gc“5RangeZÄÜï13opApplyHelperFNbxPSÄ∏Õ4NodeMDÄÉ≈KxÄé†i… 1000D630
 0003:0000A680       _thread_scanAll            1000D680
 0003:0000A69C       _D4core6th·ad14˝_scanAllUNbMDF·Pv…Z…43__T9Ÿlambda2TEÄåº8SÄÉ¥TypeTPv“ZÄä®MÄÉ¬Äñ´ÄÜÿ 1000D69C
 0003:0000A6B4       _D2rt4util9container5treap23__T5TreapTS2gc2gc4RootZ5Treap7opApplyMFNbMDFNbKS2gc2gc4RootZiZi 1000D6B4
 0003:0000A6D0       _D2rt4util9container5treap23__T5TreapTS2gc2gc4RootZ5Treap7opApplyMFNbMDFNbKS2gc2gc4RootZiZ9__lambda2MFNbKxS2gc2gc4RootZi 1000D6D0
 0003:0000A6E4       _D2rt4util9container5treap23__T5TÄÑãTS2gc“4RootZÄÜî6insertMFNbPSÄ∑ƒ4NodeÄçòÄæÀ 1000D6E4
 0003:0000A7D4       _D2rt4util9container5treap23__T5TÄÑãTS2gc“4RootZÄÜî6·moveFNbNiPPSÄ∑∆4NodeÄçòv 1000D7D4
 0003:0000A874       _D2rt4util9container5treap23__T5TÄÑãTS2gc“4RootZÄÜî9·moveAllFNbNiPSÄ∑»4NodeZv 1000D874
 0003:0000A8A0       _D2rt4util9container5treap23__T5TÄÑãTS2gc“4RootZÄÜî13opApplyHelperFNbxPSÄ∑Ã4NodeMDÄÉƒKxÄçüi… 1000D8A0
 0003:0000A8F0       _rt_finalizeFromGC         1000D8F0
 0003:0000A930       _D2gc2gc4Pool12freePageBitsMFNbkKxG8kZv 1000D930
 0003:0000ABDC       _D2gc4bits6GCBits5allocMFNbkZv 1000DBDC
 0003:0000AC14       _D4core4time8Duration5opCmpMxFNaNbNiNfS4core4time8DurationZi 1000DC14
 0003:0000AC58       _D4core4time8Duration7fracSecMxFNaNbNdNfZS4core4time7FracSec 1000DC58
 0003:0000ACFC       _D4core4time8Duration6__ctorMFNaNbNcNiNflZS4core4time8Duration 1000DCFC
 0003:0000AD10       _thread_suspendAll         1000DD10
 0003:0000B020       _thread_resumeAll          1000E020
 0003:0000B130       _D2rt5tlsgc14processGCMarksFNbPvMDFNbPvZiZv 1000E130
 0003:0000B184       _D4core6thread6Thread7setThisFC4core6thread6ThreadZv 1000E184
 0003:0000B1A0       _D2rt6config15rt_configOptionFNbNiAyaMDFNbNiAyaZAyabZAya 1000E1A0
 0003:0000B298       _D2rt6config15rt_configOptionFNbNiAyaMDFNbNiAyaZAyabZ9__lambda4MFNaNbNiNfAyaZAya 1000E298
 0003:0000B2A8       _D2rt5minfo67__T14runModuleFuncsS442rt5minfo11ModuleGroup8runCtorsMFZ9__lambda2Z14runModuleFuncsMFAxPyS6object10ModuleInfoZv 1000E2A8
 0003:0000B2FC       _D2rt5minfo67__T14runModuleFuncsS442rt5minfo11ModuleGroup8runCtorsMFZ9__lambda1Z14runModuleFuncsMFAxPyS6object10ModuleInfoZv 1000E2FC
 0003:0000B354       _D4core6memory2GC8addRangeFNbxPvkxC8TypeInfoZv 1000E354
 0003:0000B36C       _gc_removeRoot             1000E36C
 0003:0000B3A8       _D2gc2gc7GCMutex4lockMFNbNeZv 1000E3A8
 0003:0000B3B8       _D2gc2gc7GCMutex6unlockMFNbNeZv 1000E3B8
 0003:0000B3C8       _D2gc2gc7GCMutex6__ctorMFNbNeZC2gc2gc7GCMutex 1000E3C8
 0003:0000B3D4       _gc_free                   1000E3D4
 0003:0000B400       _gc_query                  1000E400
 0003:0000B45C       _D2gc6config6Config10initializeMFNbNiZb 1000E45C
 0003:0000B494       _D2gc6config6Config10initializeMFNbNiZ5parseMFNbNiAyaZAya 1000E494
 0003:0000B4C0       _D2gc6config6Config12parseOptionsMFNbNiAxaZb 1000E4C0
 0003:0000B7F8       _gc_qalloc                 1000E7F8
 0003:0000B880       _gc_removeRange            1000E880
 0003:0000B8AC       _gc_reserve                1000E8AC
 0003:0000B8D8       _gc_calloc                 1000E8D8
 0003:0000B918       _gc_minimize               1000E918
 0003:0000B958       _gc_getAttr                1000E958
 0003:0000B984       _gc_realloc                1000E984
 0003:0000BA2C       _gc_collect                1000EA2C
 0003:0000BA70       _gc_addrOf                 1000EA70
 0003:0000BA9C       _gc_clrAttr                1000EA9C
 0003:0000BAD0       _gc_addRoot                1000EAD0
 0003:0000BAFC       _gc_runFinalizers          1000EAFC
 0003:0000BB50       _gc_setAttr                1000EB50
 0003:0000BB84       _thread_init               1000EB84
 0003:0000BBE8       _gc_sizeOf                 1000EBE8
 0003:0000BC14       _gc_addRange               1000EC14
 0003:0000BC50       _gc_extend                 1000EC50
 0003:0000BCBC       _D2rt8typeinfo5ti_Ag12TypeInfo_Axa8toStringMxFNaNbNfZAya 1000ECBC
 0003:0000BCCC       _D2rt8typeinfo5ti_Ag12TypeInfo_Axa4nextMNgFNaNbNdNiZNgC8TypeInfo 1000ECCC
 0003:0000BCD4       __d_arrayliteralTX         1000ECD4
 0003:0000BD6C       _D2rt8typeinfo8ti_Along11TypeInfo_Am8toStringMxFNaNbNfZAya 1000ED6C
 0003:0000BD7C       _D2rt8typeinfo8ti_Along11TypeInfo_Am7compareMxFxPvxPvZi 1000ED7C
 0003:0000BE1C       _D2rt8typeinfo8ti_Along11TypeInfo_Am4nextMNgFNaNbNdNiZNgC8TypeInfo 1000EE1C
 0003:0000BE24       __d_newarrayT              1000EE24
 0003:0000BE70       _D4core8demangle8Demangle67__T10doDemangleS48_D4core8demangle8Demangle16parseMangledNameMFkZvZ10doDemangleMFZAa 1000EE70
 0003:0000BF68       _D4core8demangle8Demangle6__ctorMFNcAxaAaZS4core8demangle8Demangle 1000EF68
 0003:0000BF88       _D4core8demangle8Demangle6__ctorMFNcAxaE4core8demangle8Demangle7AddTypeAaZS4core8demangle8Demangle 1000EF88
 0003:0000BFB4       _D4core8demangle8Demangle9ascii2hexFaZh 1000EFB4
 0003:0000C00C       _D4core8demangle8Demangle8containsFAxaAxaZb 1000F00C
 0003:0000C05C       _D4core8demangle8Demangle5shiftMFAxaZAa 1000F05C
 0003:0000C0C8       _D4core8demangle8Demangle5shiftMFAxaZ4exchMFkkZv 1000F0C8
 0003:0000C104       _D4core8demangle8Demangle6appendMFAxaZAa 1000F104
 0003:0000C1C0       _D4core8demangle8Demangle3putMFAxaZAa 1000F1C0
 0003:0000C214       _D4core8demangle8Demangle8putAsHexMFkiZAa 1000F214
 0003:0000C2A0       _D4core8demangle8Demangle3tokMFZa 1000F2A0
 0003:0000C2C0       _D4core8demangle8Demangle4testMFaZv 1000F2C0
 0003:0000C2DC       _D4core8demangle8Demangle4nextMFZv 1000F2DC
 0003:0000C2F8       _D4core8demangle8Demangle5matchMFAxaZv 1000F2F8
 0003:0000C33C       _D4core8demangle8Demangle11sliceNumberMFZAxa 1000F33C
 0003:0000C38C       _D4core8demangle8Demangle12decodeNumberMFAxaZk 1000F38C
 0003:0000C3F0       _D4core8demangle8Demangle9parseRealMFZv 1000F3F0
 0003:0000C660       _D4core8demangle8Demangle10parseLNameMFZv 1000F660
 0003:0000C784       _D4core8demangle8Demangle9parseTypeMFAaZAa 1000F784
 0003:0000CD14       _D4core8demangle8Demangle19parseCallConventionMFZv 1000FD14
 0003:0000CDCC       _D4core8demangle8Demangle13parseFuncAttrMFZv 1000FDCC
 0003:0000CEF8       _D4core8demangle8Demangle18parseFuncArgumentsMFZv 1000FEF8
 0003:0000D054       _D4core8demangle8Demangle17parseTypeFunctionMFAaE4core8demangle8Demangle10IsDelegateZAa 10010054
 0003:0000D220       _D4core8demangle8Demangle16isCallConventionFaZb 10010220
 0003:0000D250       _D4core8demangle8Demangle10parseValueMFAaaZv 10010250
 0003:0000D6F0       _D4core8demangle8Demangle17parseIntegerValueMFAaaZv 100106F0
 0003:0000DA54       _D4core8demangle8Demangle17parseTemplateArgsMFZv 10010A54
 0003:0000DC20       _D4core8demangle8Demangle17parseTemplateArgsMFZ12__dgliteral1MFNaNiNfZv 10010C20
 0003:0000DC38       _D4core8demangle8Demangle19mayBeMangledNameArgMFZb 10010C38
 0003:0000DD44       _D4core8demangle8Demangle25parseTemplateInstanceNameMFZv 10010D44
 0003:0000DE58       _D4core8demangle8Demangle25mayBeTemplateInstanceNameMFZb 10010E58
 0003:0000DF74       _D4core8demangle8Demangle15parseSymbolNameMFZv 10010F74
 0003:0000E038       _D4core8demangle8Demangle18parseQualifiedNameMFZAa 10011038
 0003:0000E15C       _D4core8demangle8Demangle16parseMangledNameMFkZv 1001115C
 0003:0000E1F0       _D4core8demangle15decodeDmdStringFAxaKkZAya 100111F0
 0003:0000E364       _D6object14__T4_dupTxaTaZ4_dupFNaNbAxaZAa 10011364
 0003:0000E3C0       _D6object15TypeInfo_Struct8toStringMxFNaNbNfZAya 100113C0
 0003:0000E3CC       _D6object15TypeInfo_Struct8opEqualsMFC6ObjectZb 100113CC
 0003:0000E454       _D6object15TypeInfo_Struct7getHashMxFNaNbNfxPvZk 10011454
 0003:0000E480       _D6object15TypeInfo_Struct6equalsMxFNaNbNexPvxPvZb 10011480
 0003:0000E4F0       _D6object15TypeInfo_Struct7compareMxFNaNbNexPvxPvZi 100114F0
 0003:0000E554       _D6object15TypeInfo_Struct5tsizeMxFNaNbNdNiNfZk 10011554
 0003:0000E55C       _D6object15TypeInfo_Struct4initMxFNaNbNiNfZAxv 1001155C
 0003:0000E568       _D6object15TypeInfo_Struct5flagsMxFNaNbNdNiNfZk 10011568
 0003:0000E570       _D6object15TypeInfo_Struct6talignMxFNaNbNdNiNfZk 10011570
 0003:0000E578       _D6object15TypeInfo_Struct7destroyMxFPvZv 10011578
 0003:0000E58C       _D6object15TypeInfo_Struct8postblitMxFPvZv 1001158C
 0003:0000E5A0       _D6object15TypeInfo_Struct6rtInfoMxFNaNbNdNiNfZPyv 100115A0
 0003:0000E5A8       _D6object15TypeInfo_Vector8toStringMxFNaNbNfZAya 100115A8
 0003:0000E600       _D6object15TypeInfo_Vector8opEqualsMFC6ObjectZb 10011600
 0003:0000E668       _D6object15TypeInfo_Vector7getHashMxFNbNfxPvZk 10011668
 0003:0000E67C       _D6object15TypeInfo_Vector6equalsMxFxPvxPvZb 1001167C
 0003:0000E694       _D6object15TypeInfo_Vector7compareMxFxPvxPvZi 10011694
 0003:0000E6AC       _D6object15TypeInfo_Vector5tsizeMxFNaNbNdNiNfZk 100116AC
 0003:0000E6B8       _D6object15TypeInfo_Vector4swapMxFPvPvZv 100116B8
 0003:0000E6D0       _D6object15TypeInfo_Vector4nextMNgFNaNbNdNiZNgC8TypeInfo 100116D0
 0003:0000E6DC       _D6object15TypeInfo_Vector5flagsMxFNaNbNdNiNfZk 100116DC
 0003:0000E6E8       _D6object15TypeInfo_Vector4initMxFNaNbNiNfZAxv 100116E8
 0003:0000E6F4       _D6object15TypeInfo_Vector6talignMxFNaNbNdNiNfZk 100116F4
 0003:0000E6FC       _D6object15TypeInfo_Shared8toStringMxFNaNbNfZAya 100116FC
 0003:0000E754       _D6object18TypeInfo_Interface8toStringMxFNaNbNfZAya 10011754
 0003:0000E760       _D6object18TypeInfo_Interface8opEqualsMFC6ObjectZb 10011760
 0003:0000E7D4       _D6object18TypeInfo_Interface7getHashMxFNbNexPvZk 100117D4
 0003:0000E7F0       _D6object18TypeInfo_Interface6equalsMxFxPvxPvZb 100117F0
 0003:0000E844       _D6object18TypeInfo_Interface7compareMxFxPvxPvZi 10011844
 0003:0000E89C       _D6object18TypeInfo_Interface5tsizeMxFNaNbNdNiNfZk 1001189C
 0003:0000E8A4       _D6object18TypeInfo_Interface5flagsMxFNaNbNdNiNfZk 100118A4
 0003:0000E8AC       _D6object25TypeInfo_AssociativeArray8toStringMxFNaNbNfZAya 100118AC
 0003:0000E91C       _D6object25TypeInfo_AssociativeArray8opEqualsMFC6ObjectZb 1001191C
 0003:0000E9AC       _D6object25TypeInfo_AssociativeArray6equalsMxFNexPvxPvZb 100119AC
 0003:0000E9CC       _D6object25TypeInfo_AssociativeArray7getHashMxFNbNexPvZk 100119CC
 0003:0000E9E0       _D6object25TypeInfo_AssociativeArray5tsizeMxFNaNbNdNiNfZk 100119E0
 0003:0000E9E8       _D6object25TypeInfo_AssociativeArray4nextMNgFNaNbNdNiZNgC8TypeInfo 100119E8
 0003:0000E9F0       _D6object25TypeInfo_AssociativeArray5flagsMxFNaNbNdNiNfZk 100119F0
 0003:0000E9F8       _D6object25TypeInfo_AssociativeArray6talignMxFNaNbNdNiNfZk 100119F8
 0003:0000EA00       _D6object19MemberInfo_function4nameMFNaNbNdZAya 10011A00
 0003:0000EA0C       _D6object19MemberInfo_function8typeInfoMFNaNbNdZC8TypeInfo 10011A0C
 0003:0000EA14       _D6object19MemberInfo_function2fpMFNaNbNdZPv 10011A14
 0003:0000EA1C       _D6object19MemberInfo_function5flagsMFNaNbNdZk 10011A1C
 0003:0000EA24       _D6object18TypeInfo_Invariant8toStringMxFNaNbNfZAya 10011A24
 0003:0000EA7C       _D6object16TypeInfo_Typedef8toStringMxFNaNbNfZAya 10011A7C
 0003:0000EA88       _D6object16TypeInfo_Typedef8opEqualsMFC6ObjectZb 10011A88
 0003:0000EB18       _D6object16TypeInfo_Typedef7getHashMxFNbNfxPvZk 10011B18
 0003:0000EB2C       _D6object16TypeInfo_Typedef6equalsMxFxPvxPvZb 10011B2C
 0003:0000EB44       _D6object16TypeInfo_Typedef7compareMxFxPvxPvZi 10011B44
 0003:0000EB5C       _D6object16TypeInfo_Typedef5tsizeMxFNaNbNdNiNfZk 10011B5C
 0003:0000EB68       _D6object16TypeInfo_Typedef4swapMxFPvPvZv 10011B68
 0003:0000EB80       _D6object16TypeInfo_Typedef4nextMNgFNaNbNdNiZNgC8TypeInfo 10011B80
 0003:0000EB8C       _D6object16TypeInfo_Typedef5flagsMxFNaNbNdNiNfZk 10011B8C
 0003:0000EB98       _D6object16TypeInfo_Typedef4initMxFNaNbNiNfZAxv 10011B98
 0003:0000EBB4       _D6object16TypeInfo_Typedef6talignMxFNaNbNdNiNfZk 10011BB4
 0003:0000EBC0       _D6object16TypeInfo_Typedef6rtInfoMxFNaNbNdNiNfZPyv 10011BC0
 0003:0000EBCC       _D6object20TypeInfo_StaticArray8toStringMxFNaNbNfZAya 10011BCC
 0003:0000EC48       _D6object20TypeInfo_StaticArray8opEqualsMFC6ObjectZb 10011C48
 0003:0000ECB8       _D6object20TypeInfo_StaticArray7getHashMxFNbNexPvZk 10011CB8
 0003:0000ECCC       _D6object20TypeInfo_StaticArray6equalsMxFxPvxPvZb 10011CCC
 0003:0000ED28       _D6object20TypeInfo_StaticArray7compareMxFxPvxPvZi 10011D28
 0003:0000ED98       _D6object20TypeInfo_StaticArray5tsizeMxFNaNbNdNiNfZk 10011D98
 0003:0000EDBC       _D6object20TypeInfo_StaticArray4swapMxFPvPvZv 10011DBC
 0003:0000EE74       _D6object20TypeInfo_StaticArray4initMxFNaNbNiNfZAxv 10011E74
 0003:0000EE80       _D6object20TypeInfo_StaticArray4nextMNgFNaNbNdNiZNgC8TypeInfo 10011E80
 0003:0000EE88       _D6object20TypeInfo_StaticArray5flagsMxFNaNbNdNiNfZk 10011E88
 0003:0000EE94       _D6object20TypeInfo_StaticArray7destroyMxFPvZv 10011E94
 0003:0000EEEC       _D6object20TypeInfo_StaticArray8postblitMxFPvZv 10011EEC
 0003:0000EF28       _D6object20TypeInfo_StaticArray6talignMxFNaNbNdNiNfZk 10011F28
 0003:0000EF34       _D6object16MemberInfo_field4nameMFNaNbNdZAya 10011F34
 0003:0000EF40       _D6object16MemberInfo_field8typeInfoMFNaNbNdZC8TypeInfo 10011F40
 0003:0000EF48       _D6object16MemberInfo_field6offsetMFNaNbNdZk 10011F48
 0003:0000EF50       _D6object14TypeInfo_Const8toStringMxFNaNbNfZAya 10011F50
 0003:0000EFA8       _D6object14TypeInfo_Const8opEqualsMFC6ObjectZb 10011FA8
 0003:0000F000       _D6object14TypeInfo_Const7getHashMxFNbNfxPvZk 10012000
 0003:0000F014       _D6object14TypeInfo_Const6equalsMxFxPvxPvZb 10012014
 0003:0000F02C       _D6object14TypeInfo_Const7compareMxFxPvxPvZi 1001202C
 0003:0000F044       _D6object14TypeInfo_Const5tsizeMxFNaNbNdNiNfZk 10012044
 0003:0000F050       _D6object14TypeInfo_Const4swapMxFPvPvZv 10012050
 0003:0000F068       _D6object14TypeInfo_Const4nextMNgFNaNbNdNiZNgC8TypeInfo 10012068
 0003:0000F074       _D6object14TypeInfo_Const5flagsMxFNaNbNdNiNfZk 10012074
 0003:0000F080       _D6object14TypeInfo_Const4initMxFNaNbNiNfZAxv 10012080
 0003:0000F08C       _D6object14TypeInfo_Const6talignMxFNaNbNdNiNfZk 1001208C
 0003:0000F098       _D6object17TypeInfo_Delegate8toStringMxFNaNbNfZAya 10012098
 0003:0000F0C0       _D6object17TypeInfo_Delegate8opEqualsMFC6ObjectZb 100120C0
 0003:0000F128       _D6object17TypeInfo_Delegate5tsizeMxFNaNbNdNiNfZk 10012128
 0003:0000F130       _D6object17TypeInfo_Delegate5flagsMxFNaNbNdNiNfZk 10012130
 0003:0000F138       _D6object17TypeInfo_Delegate6talignMxFNaNbNdNiNfZk 10012138
 0003:0000F140       _D6object14TypeInfo_Tuple8toStringMxFNaNbNfZAya 10012140
 0003:0000F204       _D6object14TypeInfo_Tuple8opEqualsMFC6ObjectZb 10012204
 0003:0000F278       _D6object14TypeInfo_Tuple7getHashMxFNbNfxPvZk 10012278
 0003:0000F27C       _D6object14TypeInfo_Tuple6equalsMxFxPvxPvZb 1001227C
 0003:0000F280       _D6object14TypeInfo_Tuple7compareMxFxPvxPvZi 10012280
 0003:0000F284       _D6object14TypeInfo_Tuple5tsizeMxFNaNbNdNiNfZk 10012284
 0003:0000F288       _D6object14TypeInfo_Tuple4swapMxFPvPvZv 10012288
 0003:0000F28C       _D6object14TypeInfo_Tuple7destroyMxFPvZv 1001228C
 0003:0000F290       _D6object14TypeInfo_Tuple8postblitMxFPvZv 10012290
 0003:0000F294       _D6object14TypeInfo_Tuple6talignMxFNaNbNdNiNfZk 10012294
 0003:0000F298       _D6object17TypeInfo_Function8toStringMxFNaNbNfZAya 10012298
 0003:0000F2C0       _D6object17TypeInfo_Function8opEqualsMFC6ObjectZb 100122C0
 0003:0000F328       _D6object17TypeInfo_Function5tsizeMxFNaNbNdNiNfZk 10012328
 0003:0000F330       _D6object16TypeInfo_Pointer8toStringMxFNaNbNfZAya 10012330
 0003:0000F358       _D6object16TypeInfo_Pointer8opEqualsMFC6ObjectZb 10012358
 0003:0000F3C0       _D6object16TypeInfo_Pointer7getHashMxFNbNexPvZk 100123C0
 0003:0000F3CC       _D6object16TypeInfo_Pointer6equalsMxFxPvxPvZb 100123CC
 0003:0000F3E8       _D6object16TypeInfo_Pointer7compareMxFxPvxPvZi 100123E8
 0003:0000F414       _D6object16TypeInfo_Pointer5tsizeMxFNaNbNdNiNfZk 10012414
 0003:0000F41C       _D6object16TypeInfo_Pointer4swapMxFPvPvZv 1001241C
 0003:0000F434       _D6object16TypeInfo_Pointer4nextMNgFNaNbNdNiZNgC8TypeInfo 10012434
 0003:0000F43C       _D6object16TypeInfo_Pointer5flagsMxFNaNbNdNiNfZk 1001243C
 0003:0000F444       _D6object14TypeInfo_Inout8toStringMxFNaNbNfZAya 10012444
 0003:0000F49C       _D2rt8lifetime12__getBlkInfoFNbPvZPS4core6memory8BlkInfo_ 1001249C
 0003:0000F578       _D2rt8lifetime21__setArrayAllocLengthFNaNbKS4core6memory8BlkInfo_kbxC8TypeInfokZb 10012578
 0003:0000F914       _D2rt8lifetime12__arrayAllocFNaNbkxC8TypeInfoxC8TypeInfoZS4core6memory8BlkInfo_ 10012914
 0003:0000F9DC       _D2rt8lifetime12__arrayAllocFkKS4core6memory8BlkInfo_xC8TypeInfoxC8TypeInfoZS4core6memory8BlkInfo_ 100129DC
 0003:0000FA88       _D2rt8typeinfo7ti_char10TypeInfo_a8toStringMxFNaNbNfZAya 10012A88
 0003:0000FA98       _D2rt8typeinfo7ti_char10TypeInfo_a7getHashMxFNaNbNexPvZk 10012A98
 0003:0000FAA4       _D2rt8typeinfo7ti_char10TypeInfo_a6equalsMxFNaNbNexPvxPvZb 10012AA4
 0003:0000FAC0       _D2rt8typeinfo7ti_char10TypeInfo_a7compareMxFNaNbNexPvxPvZi 10012AC0
 0003:0000FAD8       _D2rt8typeinfo7ti_char10TypeInfo_a5tsizeMxFNaNbNdNiNeZk 10012AD8
 0003:0000FAE0       _D2rt8typeinfo7ti_char10TypeInfo_a4swapMxFNaNbNePvPvZv 10012AE0
 0003:0000FAF8       _D2rt8typeinfo7ti_char10TypeInfo_a4initMxFNaNbNiNeZAxv 10012AF8
 0003:0000FB08       _D6object7_xopCmpFxPvxPvZb 10012B08
 0003:0000FB34       _D2rt4util4hash6hashOfFNaNbNePxvkkZk 10012B34
 0003:0000FC7C       _D2rt4util4hash6hashOfFNaNbNePxvkkZ9get16bitsFNaNbPxhZk 10012C7C
 0003:0000FC88       _D2rt4util6string7dstrcmpFNaNbNexAaxAaZi 10012C88
 0003:0000FCE8       _D2rt8typeinfo7ti_byte10TypeInfo_g8toStringMxFNaNbNfZAya 10012CE8
 0003:0000FCF8       _D2rt8typeinfo7ti_byte10TypeInfo_g7getHashMxFNaNbNexPvZk 10012CF8
 0003:0000FD04       _D2rt8typeinfo7ti_byte10TypeInfo_g6equalsMxFNaNbNexPvxPvZb 10012D04
 0003:0000FD20       _D2rt8typeinfo7ti_byte10TypeInfo_g7compareMxFNaNbNexPvxPvZi 10012D20
 0003:0000FD38       _D2rt8typeinfo7ti_byte10TypeInfo_g5tsizeMxFNaNbNdNiNeZk 10012D38
 0003:0000FD40       _D2rt8typeinfo7ti_byte10TypeInfo_g4swapMxFNaNbNePvPvZv 10012D40
 0003:0000FD58       _D6object8opEqualsFC6ObjectC6ObjectZb 10012D58
 0003:0000FDE0       _D6object12getArrayHashFNbNexC8TypeInfoxPvxkZk 10012DE0
 0003:0000FE5C       _D6object12getArrayHashFNbNexC8TypeInfoxPvxkZ15hasCustomToHashFNaNbNexC8TypeInfoZb 10012E5C
 0003:0000FEF0       _D2rt8typeinfo8ti_ubyte10TypeInfo_h8toStringMxFNaNbNfZAya 10012EF0
 0003:0000FF00       _D2rt8typeinfo8ti_ubyte10TypeInfo_h7getHashMxFNaNbNexPvZk 10012F00
 0003:0000FF0C       _D2rt8typeinfo8ti_ubyte10TypeInfo_h6equalsMxFNaNbNexPvxPvZb 10012F0C
 0003:0000FF28       _D2rt8typeinfo8ti_ubyte10TypeInfo_h7compareMxFNaNbNexPvxPvZi 10012F28
 0003:0000FF40       _D2rt8typeinfo8ti_ubyte10TypeInfo_h5tsizeMxFNaNbNdNiNeZk 10012F40
 0003:0000FF48       _D2rt8typeinfo8ti_ubyte10TypeInfo_h4swapMxFNaNbNePvPvZv 10012F48
 0003:0000FF60       __d_traceContext           10012F60
 0003:0000FF7C       _D4core5cpuid8hasCPUIDFNbNiNeZb 10012F7C
 0003:0000FFA8       _D4core5cpuid8cpuidX86FNbNiNeZv 10012FA8
 0003:0001041C       __d_newarrayU              1001341C
 0003:000104E8       _D4core9exception27InvalidMemoryOperationError8toStringMxFNeZAya 100134E8
 0003:00010504       _thread_scanAllType        10013504
 0003:0001051C       _D4core6thread18thread_scanAllTypeUNbMDFNbE4core6thread8ScanTypePvPvZvZ17__T9__lambda2TPvZ9__lambda2MFNbPvZv 1001351C
 0003:00010530       _D2rt8lifetime15finalize_array2FNbPvkZv 10013530
 0003:00010618       _rt_finalize2              10013618
 0003:0001072C       _D2rt8lifetime15finalize_structFNbPvkZv 1001372C
 0003:000107B8       _D4core4time7FracSec28__T4fromVAyaa6_686e73656373Z4fromFNaNflZS4core4time7FracSec 100137B8
 0003:00010844       _D4core6thread7suspendFNbC4core6thread6ThreadZv 10013844
 0003:000109BC       _D4core6thread6resumeFNbC4core6thread6ThreadZv 100139BC
 0003:00010AB0       _D2rt6config13rt_linkOptionFNbNiAyaMDFNbNiAyaZAyaZAya 10013AB0
 0003:00010B80       _D2rt6config16rt_cmdlineOptionFNbNiAyaMDFNbNiAyaZAyaZAya 10013B80
 0003:00010C80       _D2rt6config16rt_envvarsOptionFNbNiAyaMDFNbNiAyaZAyaZAya 10013C80
 0003:00010D7C       _D4core4sync5mutex5Mutex6__ctorMFNbNeZC4core4sync5mutex5Mutex 10013D7C
 0003:00010DB0       _D4core4sync5mutex5Mutex6__dtorMFZv 10013DB0
 0003:00010DC8       _D4core4sync5mutex5Mutex4lockMFNeZv 10013DC8
 0003:00010DD8       _D4core4sync5mutex5Mutex6unlockMFNeZv 10013DD8
 0003:00010DE8       _D4core4sync5mutex5Mutex7tryLockMFZb 10013DE8
 0003:00010DFC       _D2gc6config18__T4skipS7isspaceZ4skipFNaNbNiNfANgaZANga 10013DFC
 0003:00010E10       _D2gc6config13__T5parseHTfZ5parseFNbNiAxaKAxaKfZb 10013E10
 0003:00010EE4       _D2gc6config13__T5parseHTkZ5parseFNbNiAxaKAxaKkZb 10013EE4
 0003:00011034       _D2gc6config13__T5parseHTbZ5parseFNbNiAxaKAxaKbZb 10014034
 0003:000110F0       __d_switch_string          100140F0
 0003:000111C4       _D2gc6config63__T4findS512gc6config6Config12parseOptionsMFNbNiAxaZ9__lambda2Z4findMFNaNbNiNfANgaZANga 100141C4
 0003:00011230       _D2rt4util9container6common7xmallocFNbkZPv 10014230
 0003:0001125C       _rt_hasFinalizerInSegment  1001425C
 0003:000112D8       _D2rt8typeinfo8ti_ulong10TypeInfo_m8toStringMxFNaNbNfZAya 100142D8
 0003:000112E8       _D2rt8typeinfo8ti_ulong10TypeInfo_m7getHashMxFNaNbNexPvZk 100142E8
 0003:000112FC       _D2rt8typeinfo8ti_ulong10TypeInfo_m6equalsMxFNaNbNexPvxPvZb 100142FC
 0003:00011320       _D2rt8typeinfo8ti_ulong10TypeInfo_m7compareMxFNaNbNexPvxPvZi 10014320
 0003:0001135C       _D2rt8typeinfo8ti_ulong10TypeInfo_m5tsizeMxFNaNbNdNiNeZk 1001435C
 0003:00011364       _D2rt8typeinfo8ti_ulong10TypeInfo_m4swapMxFNaNbNePvPvZv 10014364
 0003:000113A0       _D2rt8typeinfo8ti_ulong10TypeInfo_m6talignMxFNaNbNdNiNeZk 100143A0
 0003:000113A8       _D2rt8typeinfo8ti_Along11TypeInfo_Al8opEqualsMFC6ObjectZb 100143A8
 0003:000113B8       _D2rt8typeinfo8ti_Along11TypeInfo_Al8toStringMxFNaNbNfZAya 100143B8
 0003:000113C8       _D2rt8typeinfo8ti_Along11TypeInfo_Al7getHashMxFNbNexPvZk 100143C8
 0003:000113FC       _D2rt8typeinfo8ti_Along11TypeInfo_Al6equalsMxFxPvxPvZb 100143FC
 0003:00011458       _D2rt8typeinfo8ti_Along11TypeInfo_Al7compareMxFxPvxPvZi 10014458
 0003:000114FC       _D2rt8typeinfo8ti_Along11TypeInfo_Al4nextMNgFNaNbNdNiZNgC8TypeInfo 100144FC
 0003:00011504       __d_arraysetlengthiT       10014504
 0003:0001207C       _D6object19__T11_doPostblitTaZ11_doPostblitFNaNbNiNfAaZv 1001507C
 0003:000120E0       __d_arraycatnTX            100150E0
 0003:00012244       __aaEqual                  10015244
 0003:0001232C       _D2rt3aaA8_aaEqualUxC8TypeInfoxS2rt3aaA2AAxS2rt3aaA2AAZ9_aaKeys_xMFPxS2rt3aaA5EntryZi 1001532C
 0003:000123C0       __aaGetHash                100153C0
 0003:000124A0       _D2rt8typeinfo5ti_Ag11TypeInfo_Av8toStringMxFNaNbNfZAya 100154A0
 0003:000124B0       _D2rt8typeinfo5ti_Ag11TypeInfo_Av4nextMNgFNaNbNdNiZNgC8TypeInfo 100154B0
 0003:000124B8       __d_arraybounds            100154B8
 0003:000124E4       _D2rt8lifetime18structTypeInfoSizeFNaNbNixC8TypeInfoZk 100154E4
 0003:00012514       _D6object10getElementFNaNbNeNgC8TypeInfoZNgC8TypeInfo 10015514
 0003:00012588       _D4core5cpuid18getcacheinfoCPUID4FNbNiNeZv 10015588
 0003:00012714       _D4core5cpuid15getAMDcacheinfoFNbNiNeZv 10015714
 0003:0001281C       _D4core5cpuid12getCpuInfo0BFNbNiNeZv 1001581C
 0003:0001289C       _D4core5cpuid18getcacheinfoCPUID2FNbNiNeZv 1001589C
 0003:000129A4       _D4core5cpuid18getcacheinfoCPUID2FNbNiNeZ14decipherCpuid2MFNbNihZv 100159A4
 0003:00012A74       _D4core6thread15scanAllTypeImplFNbMDFNbE4core6thread8ScanTypePvPvZvPvZv 10015A74
 0003:00012B48       _D4core6thread15scanAllTypeImplFNbMDFNbE4core6thread8ScanTypePvPvZvPvZ20__T9__lambda3TPvTPvZ9__lambda3MFNbPvPvZv 10015B48
 0003:00012B64       _D4core6thread18callWithStackShellFNbMDFNbPvZvZv 10015B64
 0003:00012B88       _onFinalizeError           10015B88
 0003:00012BD8       __d_monitordelete          10015BD8
 0003:00012CAC       _D4core4time7FracSec6__ctorMFNaNbNcNiNfiZS4core4time7FracSec 10015CAC
 0003:00012CB8       _D4core6thread13onThreadErrorFNbAyaC6object9ThrowableZv 10015CB8
 0003:00012CEC       _rt_args                   10015CEC
 0003:00012CF8       _D2gc6config67__T4findS552gc6config18__T4skipS7isspaceZ4skipFNbNiANgaZ9__lambda2Z4findMFNaNbNiNfANgaZANga 10015CF8
 0003:00012D64       _D2gc6config7__arrayZ      10015D64
 0003:00012D78       _D2rt8lifetime26hasArrayFinalizerInSegmentFNbPvkxAvZi 10015D78
 0003:00012DB4       _D2rt8lifetime27hasStructFinalizerInSegmentFNbPvkxAvZi 10015DB4
 0003:00012DE4       _D2rt8typeinfo7ti_long10TypeInfo_l8toStringMxFNaNbNfZAya 10015DE4
 0003:00012DF4       _D2rt8typeinfo7ti_long10TypeInfo_l7getHashMxFNaNbNexPvZk 10015DF4
 0003:00012E08       _D2rt8typeinfo7ti_long10TypeInfo_l6equalsMxFNaNbNexPvxPvZb 10015E08
 0003:00012E2C       _D2rt8typeinfo7ti_long10TypeInfo_l7compareMxFNaNbNexPvxPvZi 10015E2C
 0003:00012E78       _D2rt8typeinfo7ti_long10TypeInfo_l5tsizeMxFNaNbNdNiNeZk 10015E78
 0003:00012E80       _D2rt8typeinfo7ti_long10TypeInfo_l4swapMxFNaNbNePvPvZv 10015E80
 0003:00012EBC       _D2rt8typeinfo7ti_long10TypeInfo_l6talignMxFNaNbNdNiNeZk 10015EBC
 0003:00012EC4       _D6object20__T12_getPostblitTaZ12_getPostblitFNaNbNiNeZDFNaNbNiNfKaZv 10015EC4
 0003:00012F04       __aaUnwrapTypeInfo         10015F04
 0003:00012F5C       _D2rt8typeinfo7ti_void10TypeInfo_v8toStringMxFNaNbNfZAya 10015F5C
 0003:00012F6C       _D2rt8typeinfo7ti_void10TypeInfo_v7getHashMxFNaNbNexPvZk 10015F6C
 0003:00012F70       _D2rt8typeinfo7ti_void10TypeInfo_v6equalsMxFNaNbNexPvxPvZb 10015F70
 0003:00012F8C       _D2rt8typeinfo7ti_void10TypeInfo_v7compareMxFNaNbNexPvxPvZi 10015F8C
 0003:00012FA4       _D2rt8typeinfo7ti_void10TypeInfo_v5tsizeMxFNaNbNdNiNeZk 10015FA4
 0003:00012FAC       _D2rt8typeinfo7ti_void10TypeInfo_v4swapMxFNaNbNePvPvZv 10015FAC
 0003:00012FC4       _D2rt8typeinfo7ti_void10TypeInfo_v5flagsMxFNaNbNdNiNeZk 10015FC4
 0003:00012FCC       _D4core9exception10RangeError6__ctorMFNaNbNfAyakC6object9ThrowableZC4core9exception10RangeError 10015FCC
 0003:00012FF8       _D2rt5tlsgc4scanFNbPvMDFNbPvPvZvZv 10015FF8
 0003:00013040       _D4core9exception13FinalizeError8toStringMxFNfZAya 10016040
 0003:00013068       __d_monitor_destroy        10016068
 0003:00013090       _D4core6atomic28__T8atomicOpVAyaa2_2d3dTkTkZ8atomicOpFNaNbNiKOkkZk 10016090
 0003:000130C0       __fltused                  100160C0
 0003:000130C4       __STI_fltused              100160C4
 0003:000130F4       __DllMainCRTStartup@12     100160F4
 0003:0001325C       _free                      1001625C
 0003:00013278       _malloc                    10016278
 0003:00013290       _calloc                    10016290
 0003:000132AC       _realloc                   100162AC
 0003:000132F0       __opti_stosd               100162F0
 0003:00013324       _memset                    10016324
 0003:000133D0       _memcpy                    100163D0
 0003:000133D0       _memmove                   100163D0
 0003:0001355C       _fprintf                   1001655C
 0003:00013574       _vfprintf                  10016574
 0003:000135C8       _sprintf                   100165C8
 0003:000135E0       _vsprintf                  100165E0
 0003:0001364C       __snprintf                 1001664C
 0003:00013668       _vsnprintf                 10016668
 0003:000137B8       __DOSIGN                   100167B8
 0003:0001383C       __pformat                  1001683C
 0003:00014280       __cinit                    10017280
 0003:0001434C       __dodtors                  1001734C
 0003:0001437C       __semerr                   1001737C
 0003:00014388       _strcmp                    10017388
 0003:000143D8       _strcpy                    100173D8
 0003:0001443C       _strlen                    1001743C
 0003:0001449C       _strchr                    1001749C
 0003:000144F0       ___fcloseall               100174F0
 0003:00014528       __STI_io_ctor              10017528
 0003:00014540       __LMUL@                    10017540
 0003:0001457A       __ULDIV@                   1001757A
 0003:00014656       __LDIV@                    10017656
 0003:000146AE       __LCMP@                    100176AE
 0003:000146C4       _printf                    100176C4
 0003:000146D8       _time                      100176D8
 0003:00014774       _memcmp                    10017774
 0003:000147E8       _strtold                   100177E8
 0003:00015050       _getenv                    10018050
 0003:0001512C       _toupper                   1001812C
 0003:00015228       _sscanf                    10018228
 0003:0001524C       __sfmt                     1001824C
 0003:000161CC       _isdigit                   100191CC
 0003:000161E0       _isspace                   100191E0
 0003:000161F4       ___floatfmt                100191F4
 0003:000169E0       __SCANFLOAT                100199E0
 0003:00016D28       ___wfloatfmt               10019D28
 0003:0001759C       __WSCANFLOAT               1001A59C
 0003:000178F0       __clearbss                 1001A8F0
 0003:00017924       __allocinit                1001A924
 0003:0001793F       __allocwrap                1001A93F
 0003:00017940       __cexit                    1001A940
 0003:00017960       _exit                      1001A960
 0003:000179F8       __thread_init              1001A9F8
 0003:00017A0A       __addthreadtableentry      1001AA0A
 0003:00017AC1       __removethreadtableentry   1001AAC1
 0003:00017B4F       __getthreaddata            1001AB4F
 0003:00017B87       ___threadid                1001AB87
 0003:00017BB7       __errno_set                1001ABB7
 0003:00017BC7       __errno                    1001ABC7
 0003:00017BD0       ___doserrno                1001ABD0
 0003:00017BDB       __FEEXCEPT                 1001ABDB
 0003:00017BEF       __FEROUND                  1001ABEF
 0003:00017BFC       ___initmbctype             1001ABFC
 0003:00017C10       __InitSemaphoreSys         1001AC10
 0003:00017C5C       __DestroySemaphore         1001AC5C
 0003:00017D30       __WaitSemaphore            1001AD30
 0003:00017D54       __ReleaseSemaphore         1001AD54
 0003:00017D80       _fputc                     1001AD80
 0003:00017DA8       __fputc_nlock              1001ADA8
 0003:00017E08       _fgetc                     1001AE08
 0003:00017E2A       __fgetc_nlock              1001AE2A
 0003:00017E80       ___fp_lock                 1001AE80
 0003:00017F00       ___fp_unlock               1001AF00
 0003:00017F80       ___faterr                  1001AF80
 0003:00017F88       _wctomb                    1001AF88
 0003:00018000       ___alloca                  1001B000
 0003:0001804C       __ismbcdigit               1001B04C
 0003:000180E0       _wcslen                    1001B0E0
 0003:000180F4       ___rtl_init_cppexceptions  1001B0F4
 0003:0001810C       ___rtl_clean_cppexceptions 1001B10C
 0003:00018124       ___callve                  1001B124
 0003:00018138       __setenvp                  1001B138
 0003:0001814C       _fclose                    1001B14C
 0003:000181F8       __STI_init_std_files       1001B1F8
 0003:00018224       __STD_init_std_files       1001B224
 0003:00018228       _close                     1001B228
 0003:0001827C       _remove                    1001B27C
 0003:0001829C       __dos_sethandlecount       1001B29C
 0003:000182C0       _lseek                     1001B2C0
 0003:000182F0       _vprintf                   1001B2F0
 0003:0001834C       ___localstructtmtotime_t   1001B34C
 0003:00018414       ___adjustfordst            1001B414
 0003:000185B8       ___internal_tzset          1001B5B8
 0003:000185D0       __isctype                  1001B5D0
 0003:00018678       __SET_ERRNO                1001B678
 0003:000186A4       _fegetenv                  1001B6A4
 0003:00018700       _fesetenv                  1001B700
 0003:00018740       __8087_init                1001B740
 0003:000187E0       _memicmp                   1001B7E0
 0003:00018834       _strdup                    1001B834
 0003:00018870       _stricmp                   1001B870
 0003:00018870       _strcmpl                   1001B870
 0003:000189EC       ___build_environ           1001B9EC
 0003:00018AC8       _strnicmp                  1001BAC8
 0003:00018B20       __ismbcspace               1001BB20
 0003:00018BB4       _mbtowc                    1001BBB4
 0003:00018C9C       __FLOATCVT                 1001BC9C
 0003:00018E98       _tolower                   1001BE98
 0003:00018F4C       ___fpclassify_ld           1001BF4C
 0003:00018FD0       __WDOSIGN                  1001BFD0
 0003:00019008       _wcscpy                    1001C008
 0003:00019030       __Exit                     1001C030
 0003:00019040       _itoa                      1001C040
 0003:00019067       ___itoa                    1001C067
 0003:0001909C       _fflush                    1001C09C
 0003:00019138       __flushterm                1001C138
 0003:00019168       _setvbuf                   1001C168
 0003:00019218       _FREEBUF                   1001C218
 0003:00019250       __flushbu                  1001C250
 0003:000193E0       __fillbuf                  1001C3E0
 0003:000194F0       __win32_stderrmsg          1001C4F0
 0003:00019540       __win32_faterr             1001C540
 0003:00019688       __setmbcp                  1001C688
 0003:000197B0       __SET_NT_ERRNO             1001C7B0
 0003:00019AA4       _tzset                     1001CAA4
 0003:00019DF0       __FCOMPP@                  1001CDF0
 0003:00019E0E       __FTEST0@                  1001CE0E
 0003:00019E2E       __FTEST@                   1001CE2E
 0003:00019E46       __DTST87@                  1001CE46
 0003:00019E4A       __87TOPSW@                 1001CE4A
 0003:00019E4F       __DBLTO87@                 1001CE4F
 0003:00019E5A       __DBLINT87@                1001CE5A
 0003:00019E7B       __DBLLNG87@                1001CE7B
 0003:00019E97       __FLTTO87@                 1001CE97
 0003:00019E9E       __status87                 1001CE9E
 0003:00019EA3       __clear87                  1001CEA3
 0003:00019EAC       __control87                1001CEAC
 0003:00019ED3       __fpreset                  1001CED3
 0003:00019ED8       _flushall                  1001CED8
 0003:00019F18       _isatty                    1001CF18
 0003:00019F40       _write                     1001CF40
 0003:0001A170       _read                      1001D170
 0003:0001A360       _atol                      1001D360
 0003:0001A370       __chkstack                 1001D370
 0003:0001A373       __chkstk                   1001D373
 0003:0001A373       __alloca_probe             1001D373
 0003:0001A390       _abs                       1001D390
 0003:0001A390       _labs                      1001D390
 0003:0001A39A       _llabs                     1001D39A
 0003:0001A3B4       _atoi                      1001D3B4
 0003:0001A400  Imp  _ReadFile@20         (KERNEL32.dll.ReadFile)
 0003:0001A406  Imp  _GlobalAlloc@8       (KERNEL32.dll.GlobalAlloc)
 0003:0001A40C  Imp  _WriteFile@20        (KERNEL32.dll.WriteFile)
 0003:0001A412  Imp  _GlobalFree@4        (KERNEL32.dll.GlobalFree)
 0003:0001A418  Imp  _GetFileType@4       (KERNEL32.dll.GetFileType)
 0003:0001A41E  Imp  _GetTimeZoneInformation@4 (KERNEL32.dll.GetTimeZoneInformation)
 0003:0001A424  Imp  _GetACP@0            (KERNEL32.dll.GetACP)
 0003:0001A42A  Imp  _GetOEMCP@0          (KERNEL32.dll.GetOEMCP)
 0003:0001A430  Imp  _GetCPInfo@8         (KERNEL32.dll.GetCPInfo)
 0003:0001A436  Imp  _WriteConsoleA@20    (KERNEL32.dll.WriteConsoleA)
 0003:0001A43C  Imp  _SetFilePointer@16   (KERNEL32.dll.SetFilePointer)
 0003:0001A442  Imp  _GetLastError@0      (KERNEL32.dll.GetLastError)
 0003:0001A448  Imp  _ExitProcess@4       (KERNEL32.dll.ExitProcess)
 0003:0001A44E  Imp  _DeleteFileA@4       (KERNEL32.dll.DeleteFileA)
 0003:0001A454  Imp  _SetHandleCount@4    (KERNEL32.dll.SetHandleCount)
 0003:0001A45A  Imp  _GetStdHandle@4      (KERNEL32.dll.GetStdHandle)
 0003:0001A460  Imp  _GetStringTypeA@20   (KERNEL32.dll.GetStringTypeA)
 0003:0001A466  Imp  _WideCharToMultiByte@32 (KERNEL32.dll.WideCharToMultiByte)
 0003:0001A46C  Imp  _GetTickCount@0      (KERNEL32.dll.GetTickCount)
 0003:0001A472  Imp  _ReleaseSemaphore@12 (KERNEL32.dll.ReleaseSemaphore)
 0003:0001A478  Imp  _CreateSemaphoreA@16 (KERNEL32.dll.CreateSemaphoreA)
 0003:0001A47E  Imp  _GetProcessHeap@0    (KERNEL32.dll.GetProcessHeap)
 0003:0001A484  Imp  _LCMapStringA@24     (KERNEL32.dll.LCMapStringA)
 0003:0001A48A  Imp  _GetLocalTime@4      (KERNEL32.dll.GetLocalTime)
 0003:0001A490  Imp  _FreeEnvironmentStringsA@4 (KERNEL32.dll.FreeEnvironmentStringsA)
 0003:0001A496  Imp  _GetEnvironmentStrings@0 (KERNEL32.dll.GetEnvironmentStrings)
 0003:0001A49C  Imp  _HeapReAlloc@16      (KERNEL32.dll.HeapReAlloc)
 0003:0001A4A2  Imp  _HeapAlloc@12        (KERNEL32.dll.HeapAlloc)
 0003:0001A4A8  Imp  _HeapFree@12         (KERNEL32.dll.HeapFree)
 0003:0001A4AE  Imp  _GetVersion@0        (KERNEL32.dll.GetVersion)
 0003:0001A4B4  Imp  _TryEnterCriticalSection@4 (KERNEL32.dll.TryEnterCriticalSection)
 0003:0001A4BA  Imp  _ResumeThread@4      (KERNEL32.dll.ResumeThread)
 0003:0001A4C0  Imp  _SuspendThread@4     (KERNEL32.dll.SuspendThread)
 0003:0001A4C6  Imp  _GetThreadContext@8  (KERNEL32.dll.GetThreadContext)
 0003:0001A4CC  Imp  _Sleep@4             (KERNEL32.dll.Sleep)
 0003:0001A4D2  Imp  _RaiseException@16   (KERNEL32.dll.RaiseException)
 0003:0001A4D8  Imp  _GetEnvironmentVariableA@12 (KERNEL32.dll.GetEnvironmentVariableA)
 0003:0001A4DE  Imp  _RtlCaptureContext@4 (KERNEL32.dll.RtlCaptureContext)
 0003:0001A4E4  Imp  _InitializeCriticalSection@4 (KERNEL32.dll.InitializeCriticalSection)
 0003:0001A4EA  Imp  _GlobalMemoryStatus@4 (KERNEL32.dll.GlobalMemoryStatus)
 0003:0001A4F0  Imp  _VirtualAlloc@16     (KERNEL32.dll.VirtualAlloc)
 0003:0001A4F6  Imp  _WaitForSingleObject@8 (KERNEL32.dll.WaitForSingleObject)
 0003:0001A4FC  Imp  _VirtualFree@12      (KERNEL32.dll.VirtualFree)
 0003:0001A502  Imp  _QueryPerformanceFrequency@4 (KERNEL32.dll.QueryPerformanceFrequency)
 0003:0001A508  Imp  _QueryPerformanceCounter@4 (KERNEL32.dll.QueryPerformanceCounter)
 0003:0001A50E  Imp  _GetExitCodeThread@8 (KERNEL32.dll.GetExitCodeThread)
 0003:0001A514  Imp  _RtlUnwind@16        (KERNEL32.dll.RtlUnwind)
 0003:0001A51A  Imp  _LoadLibraryA@4      (KERNEL32.dll.LoadLibraryA)
 0003:0001A520  Imp  _DeleteCriticalSection@4 (KERNEL32.dll.DeleteCriticalSection)
 0003:0001A526  Imp  _GetConsoleWindow@0  (KERNEL32.dll.GetConsoleWindow)
 0003:0001A52C  Imp  _LoadLibraryW@4      (KERNEL32.dll.LoadLibraryW)
 0003:0001A532  Imp  _FreeLibrary@4       (KERNEL32.dll.FreeLibrary)
 0003:0001A538  Imp  _MultiByteToWideChar@24 (KERNEL32.dll.MultiByteToWideChar)
 0003:0001A53E  Imp  _SwitchToThread@0    (KERNEL32.dll.SwitchToThread)
 0003:0001A544  Imp  _GetSystemInfo@4     (KERNEL32.dll.GetSystemInfo)
 0003:0001A54A  Imp  _DuplicateHandle@28  (KERNEL32.dll.DuplicateHandle)
 0003:0001A550  Imp  _GetCurrentProcess@0 (KERNEL32.dll.GetCurrentProcess)
 0003:0001A556  Imp  _GetCurrentThread@0  (KERNEL32.dll.GetCurrentThread)
 0003:0001A55C  Imp  _LeaveCriticalSection@4 (KERNEL32.dll.LeaveCriticalSection)
 0003:0001A562  Imp  _EnterCriticalSection@4 (KERNEL32.dll.EnterCriticalSection)
 0003:0001A568  Imp  _GetProcAddress@8    (KERNEL32.dll.GetProcAddress)
 0003:0001A56E  Imp  _GetModuleHandleA@4  (KERNEL32.dll.GetModuleHandleA)
 0003:0001A574  Imp  _GetCurrentProcessId@0 (KERNEL32.dll.GetCurrentProcessId)
 0003:0001A57A  Imp  _OpenThread@12       (KERNEL32.dll.OpenThread)
 0003:0001A580  Imp  _CloseHandle@4       (KERNEL32.dll.CloseHandle)
 0003:0001A586  Imp  _GetCurrentThreadId@0 (KERNEL32.dll.GetCurrentThreadId)
 0003:0001A58C  Imp  _MessageBoxA@16      (USER32.dll.MessageBoxA)
 0004:00000000       __tlsstart                 1001E000
 0004:00000010       _D4core3sys7windows3dll10tlsCtorRunb 1001E010
 0004:00000020       _D4core6thread6Thread7sm_thisC4core6thread6Thread 1001E020
 0004:00000030       _D2rt9deh_win3221inflightExceptionListPS2rt9deh_win3216EXCEPTION_RECORD 1001E030
 0004:00000040       _D4core6thread5Fiber7sm_thisC4core6thread5Fiber 1001E040
 0004:00000050       _D2rt8lifetime18__blkcache_storagePS4core6memory8BlkInfo_ 1001E050
 0004:00000054       _D2rt8lifetime12__nextBlkIdxi 1001E054
 0004:00000060       __tlsend                   1001E060
 0005:00000000       __xi_a                     1001F000
 0005:00000010       __xi_z                     1001F010
 0005:00000020       __xc_a                     1001F020
 0005:00000030       __xc_z                     1001F030
 0005:00000040       __xp_a                     1001F040
 0005:00000050       __xp_z                     1001F050
 0005:00000060       __xt_a                     1001F060
 0005:00000070       __xt_z                     1001F070
 0005:00000090       _D8kpropdll12__ModuleInfoZ 1001F090
 0005:000000C0       _D7dllmain12__ModuleInfoZ  1001F0C0
 0005:00000260       _D4core3sys7windows3dll12__ModuleInfoZ 1001F260
 0005:000003A0       _D4core3sys7windows9threadaux12__ModuleInfoZ 1001F3A0
 0005:000003F0       _D4core7runtime12__ModuleInfoZ 1001F3F0
 0005:000004C0       _D2rt14sections_win3212__ModuleInfoZ 1001F4C0
 0005:00000530       _D4core6thread18TLS_OUT_OF_INDEXESxk 1001F530
 0005:00000534       _D4core6thread16CREATE_SUSPENDEDxi 1001F534
 0005:00000540       _D4core6thread6Thread6__initZ 1001F540
 0005:000005C0       _D4core6thread6Thread7__ClassZ 1001F5C0
 0005:00000610       _D4core6thread6Thread6__vtblZ 1001F610
 0005:00000630       _D4core6thread12__ModuleInfoZ 1001F630
 0005:00000720       _D6object9Throwable9TraceInfo11__InterfaceZ 1001F720
 0005:00000810       _D6object9Throwable6__initZ 1001F810
 0005:00000840       _D6object9Throwable7__ClassZ 1001F840
 0005:00000890       _D6object9Throwable6__vtblZ 1001F890
 0005:000008C0       _rt_trapExceptions         1001F8C0
 0005:000008D0       _D2rt6dmain212__ModuleInfoZ 1001F8D0
 0005:00000990       _D4core3sys7windows10stacktrace12__ModuleInfoZ 1001F990
 0005:00000A20       _D12TypeInfo_Aya6__initZ   1001FA20
 0005:00000A30       _D12TypeInfo_Aya7__ClassZ  1001FA30
 0005:00000A80       _D12TypeInfo_Aya6__vtblZ   1001FA80
 0005:00000AD0       _D9Exception6__initZ       1001FAD0
 0005:00000B00       _D9Exception7__ClassZ      1001FB00
 0005:00000B50       _D9Exception6__vtblZ       1001FB50
 0005:00000DF0       _D6object5Error6__initZ    1001FDF0
 0005:00000E20       _D6object5Error7__ClassZ   1001FE20
 0005:00000E70       _D6object5Error6__vtblZ    1001FE70
 0005:00000E90       _D2rt9deh_win3212__ModuleInfoZ 1001FE90
 0005:00000ED0       _D4core6atomic12__ModuleInfoZ 1001FED0
 0005:00000F40       _D6object6Object7Monitor11__InterfaceZ 1001FF40
 0005:00000F90       _D6Object6__initZ          1001FF90
 0005:00000FA0       _D6Object7__ClassZ         1001FFA0
 0005:00000FF0       _D6Object6__vtblZ          1001FFF0
 0005:00001020       _D4core4time12__ModuleInfoZ 10020020
 0005:00001060       _D4core6thread15ThreadException6__initZ 10020060
 0005:00001090       _D4core6thread15ThreadException7__ClassZ 10020090
 0005:000010E0       _D4core6thread15ThreadException6__vtblZ 100200E0
 0005:00001148       _D4core6thread11ThreadGroup6__initZ 10020148
 0005:00001160       _D4core6thread11ThreadGroup7__ClassZ 10020160
 0005:000011B0       _D4core6thread11ThreadGroup6__vtblZ 100201B0
 0005:000011E0       _D4core6thread11ThreadError6__initZ 100201E0
 0005:00001210       _D4core6thread11ThreadError7__ClassZ 10020210
 0005:00001260       _D4core6thread11ThreadError6__vtblZ 10020260
 0005:00001280       _D6object14TypeInfo_Class10ClassFlags6__initZ 10020280
 0005:00001290       _D14TypeInfo_Class6__initZ 10020290
 0005:000012E0       _D14TypeInfo_Class7__ClassZ 100202E0
 0005:00001330       _D14TypeInfo_Class6__vtblZ 10020330
 0005:000013A0       _D4core6thread5Fiber6__initZ 100203A0
 0005:000013D0       _D4core6thread5Fiber7__ClassZ 100203D0
 0005:00001420       _D4core6thread5Fiber6__vtblZ 10020420
 0005:00001440       _D2rt8lifetime12__ModuleInfoZ 10020440
 0005:000014B0       _D4core9exception16OutOfMemoryError6__initZ 100204B0
 0005:000014E0       _D4core9exception16OutOfMemoryError7__ClassZ 100204E0
 0005:00001530       _D4core9exception16OutOfMemoryError6__vtblZ 10020530
 0005:00001550       _D2gc5proxy3_gcS2gc2gc2GC  10020550
 0005:00001560       _D2gc5proxy12__ModuleInfoZ 10020560
 0005:00001590       _D2gc2gc2GC6__initZ        10020590
 0005:000015A0       _D2gc2gc2GC6configS2gc6config6Config 100205A0
 0005:000015C0       _stdin                     100205C0
 0005:000015C4       _stdout                    100205C4
 0005:000015C8       _stderr                    100205C8
 0005:000015CC       _stdaux                    100205CC
 0005:000015D0       _stdprn                    100205D0
 0005:000015E0       _D4core4stdc5stdio12__ModuleInfoZ 100205E0
 0005:00001670       _D2rt8monitor_12__ModuleInfoZ 10020670
 0005:00001730       _D2gc2gc3Gcx6__initZ       10020730
 0005:000017B0       _D2gc2gc3Gcx7findBinFNbkZ8binTablexG2049g 100207B0
 0005:00001FD0       _D2rt9critical_12__ModuleInfoZ 10020FD0
 0005:00002068       _D4core3sys7windows3dll7dll_aux18jmp_LdrpInitializeAh 10021068
 0005:00002078       _D4core3sys7windows3dll7dll_aux19jmp__LdrpInitializeAh 10021078
 0005:00002088       _D4core3sys7windows3dll7dll_aux24jmp__LdrpInitialize_xp64Ah 10021088
 0005:00002098       _D4core3sys7windows3dll7dll_aux25call_LdrpInitializeThreadAh 10021098
 0005:000020A8       _D4core3sys7windows3dll7dll_aux20call_LdrpAllocateTlsAh 100210A8
 0005:000020B8       _D4core3sys7windows3dll7dll_aux26call_LdrpAllocateTls_svr03Ah 100210B8
 0005:000020C8       _D4core3sys7windows3dll7dll_aux19jne_LdrpAllocateTlsAh 100210C8
 0005:000020D8       _D4core3sys7windows3dll7dll_aux26mov_LdrpNumberOfTlsEntriesAh 100210D8
 0005:000020E8       _D4core3sys7windows3dll7dll_aux16mov_NtdllBaseTagAh 100210E8
 0005:000020F8       _D4core3sys7windows3dll7dll_aux22mov_NtdllBaseTag_srv03Ah 100210F8
 0005:00002108       _D4core3sys7windows3dll7dll_aux15mov_LdrpTlsListAh 10021108
 0005:000021A0       _D4core3sys7windows10stacktrace10StackTrace13resolveNoSyncFAxmZ9BufSymbol6__initZ 100211A0
 0005:000025F0       _D4core3sys7windows10stacktrace10StackTrace6__initZ 100215F0
 0005:00002610       _D4core3sys7windows10stacktrace10StackTrace7__ClassZ 10021610
 0005:00002680       _D4core3sys7windows10stacktrace10StackTrace6__vtblZ 10021680
 0005:000026A0       _D6object12__ModuleInfoZ   100216A0
 0005:00002740       _D4core3sys7windows10stacktrace18generateSearchPathFZ15defaultPathListG3Aya 10021740
 0005:000027A0       _D4core3sys7windows7dbghelp12__ModuleInfoZ 100217A0
 0005:00002820       _D11TypeInfo_ya6__initZ    10021820
 0005:00002858       _D8TypeInfo6__initZ        10021858
 0005:00002860       _D8TypeInfo7__ClassZ       10021860
 0005:000028B0       _D8TypeInfo6__vtblZ        100218B0
 0005:00002910       _D11TypeInfo_Aa6__initZ    10021910
 0005:00002920       _D11TypeInfo_Aa7__ClassZ   10021920
 0005:00002970       _D11TypeInfo_Aa6__vtblZ    10021970
 0005:000029D0       _D11TypeInfo_Ag6__initZ    100219D0
 0005:000029E0       _D11TypeInfo_Ag7__ClassZ   100219E0
 0005:00002A30       _D11TypeInfo_Ag6__vtblZ    10021A30
 0005:00002A90       _D14TypeInfo_Array6__initZ 10021A90
 0005:00002AA0       _D14TypeInfo_Array7__ClassZ 10021AA0
 0005:00002AF0       _D14TypeInfo_Array6__vtblZ 10021AF0
 0005:00002B50       _D11TypeInfo_Ah6__initZ    10021B50
 0005:00002B60       _D11TypeInfo_Ah7__ClassZ   10021B60
 0005:00002BB0       _D11TypeInfo_Ah6__vtblZ    10021BB0
 0005:00002C00       _D4core5cpuid14numCacheLevelsk 10021C00
 0005:00002C04       _D4core5cpuid8vendorIDG12a 10021C04
 0005:00002C10       _D4core5cpuid19processorNameBufferG48a 10021C10
 0005:00002C40       _D4core5cpuid8maxCoresk    10021C40
 0005:00002C44       _D4core5cpuid10maxThreadsk 10021C44
 0005:00002C50       _D4core5cpuid12__ModuleInfoZ 10021C50
 0005:00002CB0       _D4core4time13TimeException6__initZ 10021CB0
 0005:00002CE0       _D4core4time13TimeException7__ClassZ 10021CE0
 0005:00002D30       _D4core4time13TimeException6__vtblZ 10021D30
 0005:00002D50       _D30TypeInfo_AC4core6thread6Thread6__initZ 10021D50
 0005:00002D68       _D2rt8lifetime20ArrayAllocLengthLock6__initZ 10021D68
 0005:00002D70       _D2rt8lifetime20ArrayAllocLengthLock7__ClassZ 10021D70
 0005:00002DC0       _D2rt8lifetime20ArrayAllocLengthLock6__vtblZ 10021DC0
 0005:00002DE0       _D2rt5tlsgc12__ModuleInfoZ 10021DE0
 0005:00002E10       _D2gc2gc9GCVERSIONxk       10021E10
 0005:00002E20       _D2gc2gc7binsizeyG11k      10021E20
 0005:00002E50       _D2gc2gc10notbinsizeyG11k  10021E50
 0005:00002E80       _D2gc2gc12__ModuleInfoZ    10021E80
 0005:000030D0       _D2gc2gc7GCMutex6__initZ   100220D0
 0005:00003100       _D2gc2gc7GCMutex7__ClassZ  10022100
 0005:00003160       _D2gc2gc7GCMutex6__vtblZ   10022160
 0005:00003180       _D2gc6config6Config6__initZ 10022180
 0005:00003588       _D12TypeInfo_Axa6__initZ   10022588
 0005:000035A0       _D12TypeInfo_Axa7__ClassZ  100225A0
 0005:000035F0       _D12TypeInfo_Axa6__vtblZ   100225F0
 0005:00003660       _D11TypeInfo_Am6__initZ    10022660
 0005:00003670       _D11TypeInfo_Am7__ClassZ   10022670
 0005:000036C0       _D11TypeInfo_Am6__vtblZ    100226C0
 0005:00003720       _D12TypeInfo_AAa6__initZ   10022720
 0005:00003770       _D4core8demangle8Demangle6__initZ 10022770
 0005:000037B0       _D4core8demangle8Demangle14ParseException6__initZ 100227B0
 0005:000037E0       _D4core8demangle8Demangle14ParseException7__ClassZ 100227E0
 0005:00003830       _D4core8demangle8Demangle14ParseException6__vtblZ 10022830
 0005:00003850       _D4core8demangle8Demangle17OverflowException6__initZ 10022850
 0005:00003880       _D4core8demangle8Demangle17OverflowException7__ClassZ 10022880
 0005:000038D0       _D4core8demangle8Demangle17OverflowException6__vtblZ 100228D0
 0005:00003A30       _D4core8demangle8Demangle9parseTypeMFAaZ10primitivesyG23Aa 10022A30
 0005:00004310       _D6object15TypeInfo_Struct11StructFlags6__initZ 10023310
 0005:00004320       _D15TypeInfo_Struct6__initZ 10023320
 0005:00004360       _D15TypeInfo_Struct7__ClassZ 10023360
 0005:000043B0       _D15TypeInfo_Struct6__vtblZ 100233B0
 0005:00004428       _D15TypeInfo_Vector6__initZ 10023428
 0005:00004440       _D15TypeInfo_Vector7__ClassZ 10023440
 0005:00004490       _D15TypeInfo_Vector6__vtblZ 10023490
 0005:00004500       _D15TypeInfo_Shared6__initZ 10023500
 0005:00004510       _D15TypeInfo_Shared7__ClassZ 10023510
 0005:00004560       _D15TypeInfo_Shared6__vtblZ 10023560
 0005:000045B0       _D13TypeInfo_Enum6__initZ  100235B0
 0005:000045D0       _D13TypeInfo_Enum7__ClassZ 100235D0
 0005:00004620       _D13TypeInfo_Enum6__vtblZ  10023620
 0005:00004670       _D18TypeInfo_Interface6__initZ 10023670
 0005:00004680       _D18TypeInfo_Interface7__ClassZ 10023680
 0005:000046D0       _D18TypeInfo_Interface6__vtblZ 100236D0
 0005:00004740       _D25TypeInfo_AssociativeArray6__initZ 10023740
 0005:00004750       _D25TypeInfo_AssociativeArray7__ClassZ 10023750
 0005:000047A0       _D25TypeInfo_AssociativeArray6__vtblZ 100237A0
 0005:000047F0       _D6object19MemberInfo_function6__initZ 100237F0
 0005:00004810       _D6object19MemberInfo_function7__ClassZ 10023810
 0005:00004860       _D6object19MemberInfo_function6__vtblZ 10023860
 0005:000048B8       _D18TypeInfo_Invariant6__initZ 100238B8
 0005:000048D0       _D18TypeInfo_Invariant7__ClassZ 100238D0
 0005:00004920       _D18TypeInfo_Invariant6__vtblZ 10023920
 0005:00004970       _D16TypeInfo_Typedef6__initZ 10023970
 0005:00004990       _D16TypeInfo_Typedef7__ClassZ 10023990
 0005:000049E0       _D16TypeInfo_Typedef6__vtblZ 100239E0
 0005:00004A50       _D20TypeInfo_StaticArray6__initZ 10023A50
 0005:00004A60       _D20TypeInfo_StaticArray7__ClassZ 10023A60
 0005:00004AB0       _D20TypeInfo_StaticArray6__vtblZ 10023AB0
 0005:00004B00       _D6object16MemberInfo_field6__initZ 10023B00
 0005:00004B20       _D6object16MemberInfo_field7__ClassZ 10023B20
 0005:00004B70       _D6object16MemberInfo_field6__vtblZ 10023B70
 0005:00004BB0       _D14TypeInfo_Const6__initZ 10023BB0
 0005:00004BC0       _D14TypeInfo_Const7__ClassZ 10023BC0
 0005:00004C10       _D14TypeInfo_Const6__vtblZ 10023C10
 0005:00004C80       _D17TypeInfo_Delegate6__initZ 10023C80
 0005:00004CA0       _D17TypeInfo_Delegate7__ClassZ 10023CA0
 0005:00004CF0       _D17TypeInfo_Delegate6__vtblZ 10023CF0
 0005:00004D40       _D6object10MemberInfo6__initZ 10023D40
 0005:00004D50       _D6object10MemberInfo7__ClassZ 10023D50
 0005:00004DA0       _D6object10MemberInfo6__vtblZ 10023DA0
 0005:00004DE0       _D14TypeInfo_Tuple6__initZ 10023DE0
 0005:00004DF0       _D14TypeInfo_Tuple7__ClassZ 10023DF0
 0005:00004E40       _D14TypeInfo_Tuple6__vtblZ 10023E40
 0005:00004EA0       _D17TypeInfo_Function6__initZ 10023EA0
 0005:00004EC0       _D17TypeInfo_Function7__ClassZ 10023EC0
 0005:00004F10       _D17TypeInfo_Function6__vtblZ 10023F10
 0005:00004F70       _D16TypeInfo_Pointer6__initZ 10023F70
 0005:00004F80       _D16TypeInfo_Pointer7__ClassZ 10023F80
 0005:00004FD0       _D16TypeInfo_Pointer6__vtblZ 10023FD0
 0005:00005040       _D14TypeInfo_Inout6__initZ 10024040
 0005:00005050       _D14TypeInfo_Inout7__ClassZ 10024050
 0005:000050A0       _D14TypeInfo_Inout6__vtblZ 100240A0
 0005:000051D0       _D2rt8typeinfo7ti_char10TypeInfo_a4initMxFNaNbNeZ1cya 100241D0
 0005:000051D8       _D10TypeInfo_a6__initZ     100241D8
 0005:000051E0       _D10TypeInfo_a7__ClassZ    100241E0
 0005:00005230       _D10TypeInfo_a6__vtblZ     10024230
 0005:000052C0       _D10TypeInfo_g6__initZ     100242C0
 0005:000052D0       _D10TypeInfo_g7__ClassZ    100242D0
 0005:00005320       _D10TypeInfo_g6__vtblZ     10024320
 0005:00005380       _D10TypeInfo_h6__initZ     10024380
 0005:00005390       _D10TypeInfo_h7__ClassZ    10024390
 0005:000053E0       _D10TypeInfo_h6__vtblZ     100243E0
 0005:000054D0       _D4core9exception27InvalidMemoryOperationError6__initZ 100244D0
 0005:00005500       _D4core9exception27InvalidMemoryOperationError7__ClassZ 10024500
 0005:00005550       _D4core9exception27InvalidMemoryOperationError6__vtblZ 10024550
 0005:00005780       _D4core4sync5mutex5Mutex6__initZ 10024780
 0005:000057B0       _D4core4sync5mutex5Mutex7__ClassZ 100247B0
 0005:00005820       _D4core4sync5mutex5Mutex6__vtblZ 10024820
 0005:000058C0       _D11TypeInfo_xa6__initZ    100248C0
 0005:000058E0       _D10TypeInfo_m6__initZ     100248E0
 0005:000058F0       _D10TypeInfo_m7__ClassZ    100248F0
 0005:00005940       _D10TypeInfo_m6__vtblZ     10024940
 0005:000059A0       _D11TypeInfo_Al6__initZ    100249A0
 0005:000059B0       _D11TypeInfo_Al7__ClassZ   100249B0
 0005:00005A00       _D11TypeInfo_Al6__vtblZ    10024A00
 0005:00005A80       _D11TypeInfo_Av6__initZ    10024A80
 0005:00005A90       _D11TypeInfo_Av7__ClassZ   10024A90
 0005:00005AE0       _D11TypeInfo_Av6__vtblZ    10024AE0
 0005:00005B70       _D4core5cpuid15getAMDcacheinfoFNbNiNeZ8assocmapyAh 10024B70
 0005:00005BA0       _D4core5cpuid18getcacheinfoCPUID2FNbNiNeZ14decipherCpuid2MFNbNihZ3idsyG63h 10024BA0
 0005:00005BE0       _D4core5cpuid18getcacheinfoCPUID2FNbNiNeZ14decipherCpuid2MFNbNihZ5sizesyG63k 10024BE0
 0005:00005CE0       _D4core5cpuid18getcacheinfoCPUID2FNbNiNeZ14decipherCpuid2MFNbNihZ4waysyG63h 10024CE0
 0005:00005D6C       _D4core9exception15onFinalizeErrorUNbNeC8TypeInfoC6object9ThrowableAyakZ3errC4core9exception13FinalizeError 10024D6C
 0005:00005F08       _D4core6thread13onThreadErrorFNbAyaC6object9ThrowableZ5errorC4core6thread11ThreadError 10024F08
 0005:00005F10       _rt_options                10024F10
 0005:00005F20       _rt_cmdline_enabled        10024F20
 0005:00005F30       _D2gc6config12__ModuleInfoZ 10024F30
 0005:00005F90       _D10TypeInfo_l6__initZ     10024F90
 0005:00005FA0       _D10TypeInfo_l7__ClassZ    10024FA0
 0005:00005FF0       _D10TypeInfo_l6__vtblZ     10024FF0
 0005:00006050       _D10TypeInfo_v6__initZ     10025050
 0005:00006060       _D10TypeInfo_v7__ClassZ    10025060
 0005:000060B0       _D10TypeInfo_v6__vtblZ     100250B0
 0005:00006120       _D4core9exception10RangeError6__initZ 10025120
 0005:00006150       _D4core9exception10RangeError7__ClassZ 10025150
 0005:000061A0       _D4core9exception10RangeError6__vtblZ 100251A0
 0005:00006230       _D4core9exception13FinalizeError6__initZ 10025230
 0005:00006260       _D4core9exception13FinalizeError7__ClassZ 10025260
 0005:000062B0       _D4core9exception13FinalizeError6__vtblZ 100252B0
 0005:000062D0       __acrtused_dll             100252D0
 0005:000062E8       __tls_index                100252E8
 0005:000062EC       __tls_callbacks_a          100252EC
 0005:000062F0       __tls_used                 100252F0
 0005:0000635C       __atexitp                  1002535C
 0005:00006360       __atexit_max               10025360
 0005:00006362       __tab_size                 10025362
 0005:00006364       __cpumode                  10025364
 0005:00006366       __pgmptr                   10025366
 0005:0000636A       __wpgmptr                  1002536A
 0005:0000636E       __osver                    1002536E
 0005:00006372       __winminor                 10025372
 0005:00006372       __winver                   10025372
 0005:00006373       __winmajor                 10025373
 0005:00006376       __osmode                   10025376
 0005:000063A1       __envptr                   100253A1
 0005:000063A5       __wenvptr                  100253A5
 0005:000063A9       ___argc                    100253A9
 0005:000063A9       __argc                     100253A9
 0005:000063AD       ___argv                    100253AD
 0005:000063AD       __argv                     100253AD
 0005:000063B1       __wargv                    100253B1
 0005:000063B1       ___wargv                   100253B1
 0005:000063B5       __FE_DFL_ENV               100253B5
 0005:000063BF       __thread1                  100253BF
 0005:000063CF       _errno                     100253CF
 0005:00006407       __fe_cur_env               10025407
 0005:0000644B       __doserrno                 1002544B
 0005:0000648B       __cppeh_sv                 1002548B
 0005:00006668       __iob                      10025668
 0005:00006DE8       __fcloseallp               10025DE8
 0005:00007028       __default_heap             10026028
 0005:00007030       ___terminate_done          10026030
 0005:00007040       __pctype                   10026040
 0005:00007044       __pwctype                  10026044
 0005:00007048       __ctype                    10026048
 0005:00007258       ___fhnd_info               10026258
 0005:00007294       __osfhnd                   10026294
 0005:00007384       __mdays                    10026384
 0005:000073A4       ___locale_mbsize           100263A4
 0005:000073A8       ___locale_codepage         100263A8
 0005:000073AC       ___locale_ident            100263AC
 0005:00007424       __80x87                    10026424
 0005:00007424       __8087                     10026424
 0005:00007428       ___locale_decimal_const    10026428
 0005:0000742C       ___locale_decpoint         1002642C
 0005:00007430       __environ                  10026430
 0005:00007434       __wenviron                 10026434
 0005:00007438       ___init_environ_ptr        10026438
 0005:000075D4       ___init_mbctype_ptr        100265D4
 0005:000075D8       __mbctype                  100265D8
 0005:000076DC       ___mbcpinfo                100266DC
 0005:000076E0       ___mbcodepage              100266E0
 0005:000076E4       ___mblcid                  100266E4
 0005:00007788       _timezone                  10026788
 0005:0000778C       _altzone                   1002678C
 0005:00007790       _daylight                  10026790
 0005:00007794       ___mainzone                10026794
 0005:000077A0       ___altzone                 100267A0
 0005:000077B0       _tzname                    100267B0
 0005:000077CC       roundto0                   100267CC
 0005:000077D0       ___locale_chars            100267D0
 0005:000077D4       ___write_fp                100267D4
 0005:00007870       ___mb_cpinfo               10026870
 0005:00007910       ___mb_cpinfoN              10026910
 0005:00008570       __edata                    10027570
 0005:00008570       _edata                     10027570
 0005:00008570       _D7dllmain7g_hInstPv       10027570
 0005:00008580       _D4core3sys7windows9threadaux10thread_aux6__initZ 10027580
 0005:00008588       _D4core3sys7windows9threadaux10thread_aux14UNICODE_STRING6__initZ 10027588
 0005:00008590       _D4core3sys7windows9threadaux10thread_aux27_SYSTEM_PROCESS_INFORMATION6__initZ 10027590
 0005:00008650       _D4core3sys7windows9threadaux10thread_aux26_SYSTEM_THREAD_INFORMATION6__initZ 10027650
 0005:00008690       _D4core3sys7windows9threadaux10thread_aux24THREAD_BASIC_INFORMATION6__initZ 10027690
 0005:000086B0       _D2rt5minfo11ModuleGroup6__initZ 100276B0
 0005:000086C8       _D2rt5minfo11ModuleGroup9sortCtorsMFZ8StackRec6__initZ 100276C8
 0005:000086E0       _D2rt14sections_win3212SectionGroup6__initZ 100276E0
 0005:00008700       _D2rt14sections_win329_sectionsS2rt14sections_win3212SectionGroup 10027700
 0005:00008720       __moduleinfo_array         10027720
 0005:00008730       _D4core6thread6Thread12PRIORITY_MINxi 10027730
 0005:00008734       _D4core6thread6Thread12PRIORITY_MAXxi 10027734
 0005:00008738       _D4core6thread6Thread16PRIORITY_DEFAULTxi 10027738
 0005:0000873C       _D4core6thread6Thread7sm_mainC4core6thread6Thread 1002773C
 0005:00008740       _D4core6thread6Thread6_locksG2G40g 10027740
 0005:00008790       _D4core6thread6Thread7sm_cbegPS4core6thread6Thread7Context 10027790
 0005:00008794       _D4core6thread6Thread7sm_tbegC4core6thread6Thread 10027794
 0005:00008798       _D4core6thread6Thread7sm_tlenk 10027798
 0005:0000879C       _D4core6thread17multiThreadedFlagb 1002779C
 0005:000087A0       _D4core6thread12suspendDepthk 100277A0
 0005:000087A4       _D4core6thread8PAGESIZEyk  100277A4
 0005:000087B0       _D2rt6dmain214printThrowableFC6object9ThrowableZ5WSink6__initZ 100277B0
 0005:000087C0       _D2rt6dmain27_d_argsAAya   100277C0
 0005:000087C8       __d_main_args              100277C8
 0005:000087D0       _D2rt6dmain210_initCountOk 100277D0
 0005:000087D8       _D2rt6dmain26_cArgsS2rt6dmain25CArgs 100277D8
 0005:000087E0       _D4core3sys7windows10stacktrace24RtlCaptureStackBackTracePWkkPPvPkZt 100277E0
 0005:000087E4       _D4core3sys7windows10stacktrace11initializedyb 100277E4
 0005:000087F0       _D6object10ModuleInfo6__initZ 100277F0
 0005:00008800       _D4core4time8MonoTime6__initZ 10027800
 0005:00008808       _D4core4time8MonoTime15_ticksPerSecondyl 10027808
 0005:00008810       _D4core4time12TickDuration6__initZ 10027810
 0005:00008818       _D4core4time12TickDuration11ticksPerSecyl 10027818
 0005:00008820       _D4core4time12TickDuration9appOriginyS4core4time12TickDuration 10027820
 0005:00008830       _D4core6thread5Fiber9initStackMFNbZ12finalHandlerPFZv 10027830
 0005:00008838       _D4core6thread5Fiber9initStackMFNbZ22EXCEPTION_REGISTRATION6__initZ 10027838
 0005:00008840       _D2rt8lifetime14collectHandlerPFC6ObjectZb 10027840
 0005:00008844       _D2rt8lifetime23callStructDtorsDuringGCyb 10027844
 0005:00008850       _D2gc5proxy5pthisS2gc5proxy5Proxy 10027850
 0005:000088A8       _D2gc5proxy5proxyPS2gc5proxy5Proxy 100278A8
 0005:000088B0       _D2gc2gc2GC4linek          100278B0
 0005:000088B4       _D2gc2gc2GC4filePa         100278B4
 0005:000088B8       _D2gc2gc2GC6gcLockC2gc2gc7GCMutex 100278B8
 0005:000088C0       _D2gc2gc2GC12mutexStorageG40g 100278C0
 0005:000088F0       _D2rt8monitor_6initedi     100278F0
 0005:00008900       _D2rt8monitor_16_monitor_critsecS4core3sys7windows7windows21_RTL_CRITICAL_SECTION 10027900
 0005:00008920       _D2gc2gc3Gcx11ToScanStack6__initZ 10027920
 0005:00008930       _D2rt9critical_8dcs_listPS2rt9critical_18D_CRITICAL_SECTION 10027930
 0005:00008940       _D2rt9critical_16critical_sectionS2rt9critical_18D_CRITICAL_SECTION 10027940
 0005:0000895C       _D2rt9critical_6initedi    1002795C
 0005:00008960       _D4core3sys7windows3dll7dll_aux6__initZ 10027960
 0005:00008970       _D4core3sys7windows3dll7dll_aux16LdrpTlsListEntry6__initZ 10027970
 0005:00008990       _D4core3sys7windows3dll7dll_aux13pNtdllBaseTagPi 10027990
 0005:00008998       _D4core3sys7windows3dll7dll_aux14UNICODE_STRING6__initZ 10027998
 0005:000089A0       _D4core3sys7windows3dll7dll_aux10LIST_ENTRY6__initZ 100279A0
 0005:000089B0       _D4core3sys7windows3dll7dll_aux10LDR_MODULE6__initZ 100279B0
 0005:00008A00       _D4core3sys7windows3dll7dll_aux12PEB_LDR_DATA6__initZ 10027A00
 0005:00008A30       _D6object12traceHandlerPFPvZC6object9Throwable9TraceInfo 10027A30
 0005:00008A40       _D4core3sys7windows7dbghelp7DbgHelp6__initZ 10027A40
 0005:00008A80       _D4core3sys7windows7dbghelp7DbgHelp7sm_instS4core3sys7windows7dbghelp7DbgHelp 10027A80
 0005:00008AC0       _D4core3sys7windows7dbghelp7DbgHelp7sm_hndlPv 10027AC0
 0005:00008AD0       _D4core5cpuid9datacacheG5S4core5cpuid9CacheInfo 10027AD0
 0005:00008B0C       _D4core5cpuid8steppingk    10027B0C
 0005:00008B10       _D4core5cpuid5modelk       10027B10
 0005:00008B14       _D4core5cpuid6familyk      10027B14
 0005:00008B18       _D4core5cpuid13probablyIntelb 10027B18
 0005:00008B19       _D4core5cpuid11probablyAMDb 10027B19
 0005:00008B20       _D4core5cpuid13processorNameAya 10027B20
 0005:00008B28       _D4core5cpuid8featuresk    10027B28
 0005:00008B2C       _D4core5cpuid12miscfeaturesk 10027B2C
 0005:00008B30       _D4core5cpuid11extfeaturesk 10027B30
 0005:00008B34       _D4core5cpuid11amdfeaturesk 10027B34
 0005:00008B38       _D4core5cpuid15amdmiscfeaturesk 10027B38
 0005:00008B40       _D4core5cpuid9xfeaturesm   10027B40
 0005:00008B48       _D4core5cpuid9max_cpuidk   10027B48
 0005:00008B4C       _D4core5cpuid18max_extended_cpuidk 10027B4C
 0005:00008B50       _D2gc2gc8prepTimeS4core4time8Duration 10027B50
 0005:00008B58       _D2gc2gc8markTimeS4core4time8Duration 10027B58
 0005:00008B60       _D2gc2gc9sweepTimeS4core4time8Duration 10027B60
 0005:00008B68       _D2gc2gc11recoverTimeS4core4time8Duration 10027B68
 0005:00008B70       _D2gc2gc12maxPauseTimeS4core4time8Duration 10027B70
 0005:00008B78       _D2gc2gc14numCollectionsk  10027B78
 0005:00008B7C       _D2gc2gc13maxPoolMemoryk   10027B7C
 0005:00008B80       _D2gc2gc14SENTINEL_EXTRAxk 10027B80
 0005:00008B90       _D2gc2gc15SmallObjectPool6__initZ 10027B90
 0005:00008BF0       _D2gc2gc15LargeObjectPool6__initZ 10027BF0
 0005:00008C50       _D2gc2gc4Pool6__initZ      10027C50
 0005:00008CB0       _D2gc4bits6GCBits6__initZ  10027CB0
 0005:00008CC0       _D4core4time8Duration6__initZ 10027CC0
 0005:00008CD0       _D4core6memory2GC6__initZ  10027CD0
 0005:00008CE0       _D4core4sync5mutex5Mutex12MonitorProxy6__initZ 10027CE0
 0005:00008CF0       _D4core4time7FracSec6__initZ 10027CF0
 0005:00009D90       __atexit_tbl               10028D90
 0005:00009EA0       ___wpscanfloat             10028EA0
 0005:00009EA4       ___wpfloatfmt              10028EA4
 0005:00009EA8       ___pscanfloat              10028EA8
 0005:00009EAC       ___pfloatfmt               10028EAC
 0005:00009EB0       __pRawDllMain              10028EB0
 0005:00009EB4       ___module_handle           10028EB4
 0005:00009EB8       __hookexitp                10028EB8
 0005:00009EBC       ___thdtbl                  10028EBC
 0005:00009EC0       __iSemLockCtrs             10028EC0
 0005:00009F4C       __hdlSemHandles            10028F4C
 0005:0000A064       __szSemPrefixLen           10029064
 0005:0000A068       __iSemThreadIds            10029068
 0005:0000A180       __iSemNestCount            10029180
 0005:0000A298       ___cpp_init_ptr            10029298
 0005:0000A29C       ___ve_debughook            1002929C
 0005:0000A2A0       ___time_milliseconds       100292A0
 0005:0000A2A2       _rt_envvars_enabled        100292A2
 0005:0000A2A3       __szSemPrefix              100292A3
 0005:0000A2B0       _end                       100292B0
 0005:0000A2B0       __end                      100292B0

Program entry point at 000160F4 
